(lp1
(lp2
(I1
F0.0058479532163742687
tp3
a(I2
F0.0028571428571428571
tp4
a(I3
F0.0017064846416382253
tp5
a(I4
F0.0020491803278688526
tp6
a(I5
F0.0035335689045936395
tp7
a(I6
F0.0016722408026755853
tp8
a(I7
F0.0028089887640449437
tp9
a(I8
F0.0015723270440251573
tp10
a(I9
F0.0022271714922048997
tp11
a(I10
F0.0027100271002710027
tp12
a(I11
F0.0016286644951140066
tp13
a(I12
F0.0015503875968992248
tp14
aa(lp15
(I0
F0.083333333333333329
tp16
a(I16
F0.0066666666666666671
tp17
a(I36
F0.049382716049382713
tp18
a(I37
F0.10714285714285714
tp19
a(I38
F0.035087719298245612
tp20
a(I39
F0.030303030303030304
tp21
a(I2
F0.017142857142857144
tp22
a(I3
F0.025597269624573378
tp23
a(I4
F0.032786885245901641
tp24
a(I5
F0.042402826855123678
tp25
a(I6
F0.016722408026755852
tp26
a(I7
F0.016853932584269662
tp27
a(I8
F0.015723270440251572
tp28
a(I40
F0.0096774193548387101
tp29
a(I41
F0.012631578947368421
tp30
a(I9
F0.013363028953229399
tp31
a(I10
F0.018970189701897018
tp32
a(I11
F0.013029315960912053
tp33
a(I12
F0.017054263565891473
tp34
a(I42
F0.01951951951951952
tp35
a(I43
F0.013725490196078431
tp36
a(I44
F0.013461538461538462
tp37
a(I35
F0.019646365422396856
tp38
a(I21
F0.0028612303290414878
tp39
aa(lp40
(I0
F0.083333333333333329
tp41
a(I1
F0.035087719298245612
tp42
a(I45
F0.14285714285714285
tp43
a(I36
F0.030864197530864196
tp44
a(I37
F0.071428571428571425
tp45
a(I38
F0.08771929824561403
tp46
a(I39
F0.21212121212121213
tp47
a(I3
F0.034129692832764506
tp48
a(I4
F0.030737704918032786
tp49
a(I5
F0.042402826855123678
tp50
a(I46
F0.055555555555555552
tp51
a(I6
F0.033444816053511704
tp52
a(I7
F0.030898876404494381
tp53
a(I8
F0.031446540880503145
tp54
a(I40
F0.025806451612903226
tp55
a(I53
F0.061624649859943981
tp56
a(I41
F0.040000000000000001
tp57
a(I9
F0.031180400890868598
tp58
a(I10
F0.024390243902439025
tp59
a(I11
F0.032573289902280131
tp60
a(I12
F0.03255813953488372
tp61
a(I42
F0.06006006006006006
tp62
a(I43
F0.031372549019607843
tp63
a(I44
F0.032692307692307694
tp64
a(I47
F0.032258064516129031
tp65
a(I48
F0.13829787234042554
tp66
a(I35
F0.021611001964636542
tp67
a(I20
F0.0014662756598240469
tp68
a(I21
F0.0042918454935622317
tp69
a(I22
F0.0016722408026755853
tp70
a(I25
F0.006269592476489028
tp71
a(I32
F0.0017421602787456446
tp72
aa(lp73
(I0
F0.083333333333333329
tp74
a(I1
F0.08771929824561403
tp75
a(I16
F0.0066666666666666671
tp76
a(I36
F0.049382716049382713
tp77
a(I37
F0.10714285714285714
tp78
a(I38
F0.035087719298245612
tp79
a(I39
F0.030303030303030304
tp80
a(I2
F0.057142857142857141
tp81
a(I4
F0.086065573770491802
tp82
a(I5
F0.060070671378091869
tp83
a(I6
F0.071906354515050161
tp84
a(I7
F0.042134831460674156
tp85
a(I8
F0.073899371069182387
tp86
a(I40
F0.077419354838709681
tp87
a(I53
F0.081232492997198882
tp88
a(I41
F0.056842105263157895
tp89
a(I9
F0.057906458797327393
tp90
a(I10
F0.054200542005420058
tp91
a(I11
F0.074918566775244305
tp92
a(I12
F0.077519379844961239
tp93
a(I42
F0.075075075075075076
tp94
a(I43
F0.058823529411764705
tp95
a(I44
F0.057692307692307696
tp96
a(I35
F0.0550098231827112
tp97
a(I17
F0.001639344262295082
tp98
a(I20
F0.0043988269794721412
tp99
a(I21
F0.0042918454935622317
tp100
a(I25
F0.0047021943573667714
tp101
a(I32
F0.0017421602787456446
tp102
aa(lp103
(I0
F0.083333333333333329
tp104
a(I1
F0.093567251461988299
tp105
a(I16
F0.0066666666666666671
tp106
a(I36
F0.049382716049382713
tp107
a(I37
F0.071428571428571425
tp108
a(I38
F0.035087719298245612
tp109
a(I39
F0.030303030303030304
tp110
a(I2
F0.042857142857142858
tp111
a(I3
F0.071672354948805458
tp112
a(I5
F0.056537102473498232
tp113
a(I6
F0.058528428093645488
tp114
a(I7
F0.036516853932584269
tp115
a(I8
F0.062893081761006289
tp116
a(I40
F0.074193548387096769
tp117
a(I53
F0.047619047619047616
tp118
a(I41
F0.021052631578947368
tp119
a(I9
F0.060133630289532294
tp120
a(I10
F0.056910569105691054
tp121
a(I11
F0.061889250814332247
tp122
a(I12
F0.060465116279069767
tp123
a(I42
F0.06006006006006006
tp124
a(I43
F0.050980392156862744
tp125
a(I44
F0.040384615384615387
tp126
a(I35
F0.0550098231827112
tp127
a(I17
F0.001639344262295082
tp128
a(I21
F0.0028612303290414878
tp129
a(I22
F0.0016722408026755853
tp130
a(I25
F0.003134796238244514
tp131
aa(lp132
(I0
F0.083333333333333329
tp133
a(I1
F0.070175438596491224
tp134
a(I45
F0.071428571428571425
tp135
a(I16
F0.0066666666666666671
tp136
a(I36
F0.049382716049382713
tp137
a(I37
F0.071428571428571425
tp138
a(I38
F0.052631578947368418
tp139
a(I39
F0.030303030303030304
tp140
a(I2
F0.034285714285714287
tp141
a(I3
F0.029010238907849831
tp142
a(I4
F0.032786885245901641
tp143
a(I46
F0.14814814814814814
tp144
a(I6
F0.026755852842809364
tp145
a(I7
F0.036516853932584269
tp146
a(I8
F0.025157232704402517
tp147
a(I40
F0.02903225806451613
tp148
a(I41
F0.02736842105263158
tp149
a(I9
F0.0334075723830735
tp150
a(I10
F0.04065040650406504
tp151
a(I11
F0.026058631921824105
tp152
a(I12
F0.024806201550387597
tp153
a(I42
F0.024024024024024024
tp154
a(I43
F0.029411764705882353
tp155
a(I44
F0.025000000000000001
tp156
a(I47
F0.16129032258064516
tp157
a(I48
F0.095744680851063829
tp158
a(I35
F0.023575638506876228
tp159
a(I21
F0.0028612303290414878
tp160
aa(lp161
(I0
F0.083333333333333329
tp162
a(I1
F0.058479532163742687
tp163
a(I16
F0.0066666666666666671
tp164
a(I36
F0.043209876543209874
tp165
a(I38
F0.017543859649122806
tp166
a(I2
F0.057142857142857141
tp167
a(I3
F0.073378839590443681
tp168
a(I4
F0.071721311475409832
tp169
a(I5
F0.056537102473498232
tp170
a(I7
F0.078651685393258425
tp171
a(I8
F0.073899371069182387
tp172
a(I40
F0.070967741935483872
tp173
a(I53
F0.061624649859943981
tp174
a(I41
F0.090526315789473691
tp175
a(I9
F0.073496659242761692
tp176
a(I10
F0.065040650406504072
tp177
a(I11
F0.074918566775244305
tp178
a(I12
F0.075968992248062014
tp179
a(I42
F0.066066066066066062
tp180
a(I43
F0.080392156862745104
tp181
a(I44
F0.080769230769230774
tp182
a(I35
F0.039292730844793712
tp183
a(I20
F0.0014662756598240469
tp184
a(I21
F0.0028612303290414878
tp185
aa(lp186
(I0
F0.083333333333333329
tp187
a(I1
F0.035087719298245612
tp188
a(I16
F0.0066666666666666671
tp189
a(I36
F0.055555555555555552
tp190
a(I38
F0.035087719298245612
tp191
a(I2
F0.031428571428571431
tp192
a(I3
F0.025597269624573378
tp193
a(I4
F0.02663934426229508
tp194
a(I5
F0.045936395759717315
tp195
a(I6
F0.046822742474916385
tp196
a(I8
F0.04716981132075472
tp197
a(I40
F0.041935483870967745
tp198
a(I53
F0.01680672268907563
tp199
a(I41
F0.025263157894736842
tp200
a(I9
F0.044543429844097995
tp201
a(I10
F0.062330623306233061
tp202
a(I11
F0.047231270358306189
tp203
a(I12
F0.044961240310077519
tp204
a(I42
F0.037537537537537538
tp205
a(I43
F0.047058823529411764
tp206
a(I44
F0.050000000000000003
tp207
a(I35
F0.033398821218074658
tp208
a(I21
F0.0028612303290414878
tp209
a(I22
F0.0016722408026755853
tp210
aa(lp211
(I0
F0.083333333333333329
tp212
a(I1
F0.058479532163742687
tp213
a(I45
F0.071428571428571425
tp214
a(I16
F0.0066666666666666671
tp215
a(I36
F0.055555555555555552
tp216
a(I37
F0.071428571428571425
tp217
a(I38
F0.035087719298245612
tp218
a(I2
F0.057142857142857141
tp219
a(I3
F0.080204778156996587
tp220
a(I4
F0.081967213114754092
tp221
a(I5
F0.056537102473498232
tp222
a(I6
F0.078595317725752512
tp223
a(I7
F0.084269662921348312
tp224
a(I40
F0.077419354838709681
tp225
a(I53
F0.061624649859943981
tp226
a(I41
F0.096842105263157896
tp227
a(I9
F0.080178173719376397
tp228
a(I10
F0.067750677506775062
tp229
a(I11
F0.076547231270358312
tp230
a(I12
F0.077519379844961239
tp231
a(I42
F0.066066066066066062
tp232
a(I43
F0.084313725490196084
tp233
a(I44
F0.08461538461538462
tp234
a(I35
F0.041257367387033402
tp235
a(I17
F0.001639344262295082
tp236
a(I20
F0.0029325513196480938
tp237
a(I21
F0.0042918454935622317
tp238
a(I25
F0.001567398119122257
tp239
a(I32
F0.0017421602787456446
tp240
aa(lp241
(I0
F0.083333333333333329
tp242
a(I1
F0.035087719298245612
tp243
a(I16
F0.0066666666666666671
tp244
a(I36
F0.049382716049382713
tp245
a(I38
F0.035087719298245612
tp246
a(I2
F0.040000000000000001
tp247
a(I3
F0.044368600682593858
tp248
a(I4
F0.055327868852459015
tp249
a(I5
F0.053003533568904596
tp250
a(I6
F0.055183946488294312
tp251
a(I7
F0.056179775280898875
tp252
a(I8
F0.056603773584905662
tp253
a(I40
F0.054838709677419356
tp254
a(I53
F0.03081232492997199
tp255
a(I41
F0.048421052631578948
tp256
a(I10
F0.059620596205962058
tp257
a(I11
F0.055374592833876218
tp258
a(I12
F0.052713178294573643
tp259
a(I42
F0.051051051051051052
tp260
a(I43
F0.058823529411764705
tp261
a(I44
F0.061538461538461542
tp262
a(I35
F0.03536345776031434
tp263
a(I20
F0.0029325513196480938
tp264
a(I21
F0.0028612303290414878
tp265
a(I22
F0.0016722408026755853
tp266
aa(lp267
(I0
F0.083333333333333329
tp268
a(I1
F0.040935672514619881
tp269
a(I45
F0.071428571428571425
tp270
a(I16
F0.0066666666666666671
tp271
a(I36
F0.055555555555555552
tp272
a(I37
F0.035714285714285712
tp273
a(I38
F0.035087719298245612
tp274
a(I2
F0.025714285714285714
tp275
a(I3
F0.034129692832764506
tp276
a(I4
F0.043032786885245901
tp277
a(I5
F0.053003533568904596
tp278
a(I6
F0.040133779264214048
tp279
a(I7
F0.064606741573033713
tp280
a(I8
F0.039308176100628929
tp281
a(I40
F0.070967741935483872
tp282
a(I53
F0.014005602240896359
tp283
a(I41
F0.048421052631578948
tp284
a(I9
F0.048997772828507792
tp285
a(I11
F0.039087947882736153
tp286
a(I12
F0.03875968992248062
tp287
a(I42
F0.036036036036036036
tp288
a(I43
F0.045098039215686274
tp289
a(I44
F0.046153846153846156
tp290
a(I35
F0.029469548133595286
tp291
a(I21
F0.0028612303290414878
tp292
a(I22
F0.0016722408026755853
tp293
aa(lp294
(I0
F0.083333333333333329
tp295
a(I1
F0.046783625730994149
tp296
a(I16
F0.0066666666666666671
tp297
a(I36
F0.043209876543209874
tp298
a(I37
F0.035714285714285712
tp299
a(I38
F0.035087719298245612
tp300
a(I2
F0.057142857142857141
tp301
a(I3
F0.078498293515358364
tp302
a(I4
F0.077868852459016397
tp303
a(I5
F0.056537102473498232
tp304
a(I6
F0.076923076923076927
tp305
a(I7
F0.081460674157303375
tp306
a(I8
F0.073899371069182387
tp307
a(I40
F0.074193548387096769
tp308
a(I53
F0.064425770308123242
tp309
a(I41
F0.090526315789473691
tp310
a(I9
F0.075723830734966593
tp311
a(I10
F0.065040650406504072
tp312
a(I12
F0.077519379844961239
tp313
a(I42
F0.067567567567567571
tp314
a(I43
F0.080392156862745104
tp315
a(I44
F0.078846153846153844
tp316
a(I35
F0.039292730844793712
tp317
a(I20
F0.0029325513196480938
tp318
a(I21
F0.0042918454935622317
tp319
a(I22
F0.0016722408026755853
tp320
a(I25
F0.003134796238244514
tp321
aa(lp322
(I0
F0.083333333333333329
tp323
a(I1
F0.064327485380116955
tp324
a(I45
F0.071428571428571425
tp325
a(I16
F0.0066666666666666671
tp326
a(I36
F0.055555555555555552
tp327
a(I37
F0.035714285714285712
tp328
a(I38
F0.052631578947368418
tp329
a(I2
F0.059999999999999998
tp330
a(I3
F0.085324232081911269
tp331
a(I4
F0.079918032786885251
tp332
a(I5
F0.056537102473498232
tp333
a(I6
F0.08193979933110368
tp334
a(I7
F0.081460674157303375
tp335
a(I8
F0.078616352201257858
tp336
a(I40
F0.074193548387096769
tp337
a(I53
F0.075630252100840331
tp338
a(I41
F0.092631578947368426
tp339
a(I9
F0.075723830734966593
tp340
a(I10
F0.067750677506775062
tp341
a(I11
F0.08143322475570032
tp342
a(I42
F0.072072072072072071
tp343
a(I43
F0.080392156862745104
tp344
a(I44
F0.080769230769230774
tp345
a(I35
F0.041257367387033402
tp346
a(I20
F0.0043988269794721412
tp347
a(I21
F0.0042918454935622317
tp348
a(I22
F0.0016722408026755853
tp349
a(I25
F0.003134796238244514
tp350
aa(lp351
(I14
F0.023622047244094488
tp352
a(I15
F0.068965517241379309
tp353
a(I16
F0.040000000000000001
tp354
a(I17
F0.001639344262295082
tp355
a(I18
F0.016985138004246284
tp356
a(I19
F0.0020242914979757085
tp357
a(I20
F0.013196480938416423
tp358
a(I21
F0.010014306151645207
tp359
a(I22
F0.013377926421404682
tp360
a(I23
F0.023622047244094488
tp361
a(I24
F0.048648648648648651
tp362
a(I25
F0.014106583072100314
tp363
a(I26
F0.022113022113022112
tp364
a(I27
F0.014925373134328358
tp365
a(I28
F0.014492753623188406
tp366
a(I29
F0.02
tp367
a(I30
F0.022959183673469389
tp368
a(I31
F0.011527377521613832
tp369
a(I32
F0.015679442508710801
tp370
aa(lp371
(I13
F0.023076923076923078
tp372
a(I15
F0.034482758620689655
tp373
a(I16
F0.066666666666666666
tp374
a(I33
F0.07575757575757576
tp375
a(I34
F0.066666666666666666
tp376
a(I35
F0.005893909626719057
tp377
a(I17
F0.0098360655737704927
tp378
a(I18
F0.004246284501061571
tp379
a(I19
F0.01417004048582996
tp380
a(I20
F0.017595307917888565
tp381
a(I21
F0.014306151645207439
tp382
a(I22
F0.011705685618729096
tp383
a(I23
F0.03937007874015748
tp384
a(I24
F0.03783783783783784
tp385
a(I25
F0.0047021943573667714
tp386
a(I26
F0.017199017199017199
tp387
a(I27
F0.0042643923240938165
tp388
a(I28
F0.004140786749482402
tp389
a(I29
F0.0044444444444444444
tp390
a(I30
F0.0076530612244897957
tp391
a(I31
F0.012968299711815562
tp392
a(I32
F0.013937282229965157
tp393
aa(lp394
(I13
F0.015384615384615385
tp395
a(I14
F0.007874015748031496
tp396
a(I18
F0.004246284501061571
tp397
a(I20
F0.0029325513196480938
tp398
a(I21
F0.0014306151645207439
tp399
a(I22
F0.0016722408026755853
tp400
a(I23
F0.0052493438320209973
tp401
a(I24
F0.010810810810810811
tp402
a(I25
F0.003134796238244514
tp403
a(I26
F0.0049140049140049139
tp404
a(I27
F0.0042643923240938165
tp405
a(I28
F0.004140786749482402
tp406
a(I29
F0.0044444444444444444
tp407
a(I30
F0.0051020408163265302
tp408
a(I31
F0.002881844380403458
tp409
a(I32
F0.0034843205574912892
tp410
aa(lp411
(I13
F0.046153846153846156
tp412
a(I14
F0.07874015748031496
tp413
a(I1
F0.0058479532163742687
tp414
a(I36
F0.0061728395061728392
tp415
a(I33
F0.07575757575757576
tp416
a(I34
F0.1111111111111111
tp417
a(I3
F0.0017064846416382253
tp418
a(I4
F0.0020491803278688526
tp419
a(I5
F0.0035335689045936395
tp420
a(I6
F0.0016722408026755853
tp421
a(I7
F0.0028089887640449437
tp422
a(I8
F0.0015723270440251573
tp423
a(I40
F0.0032258064516129032
tp424
a(I41
F0.0021052631578947368
tp425
a(I9
F0.0022271714922048997
tp426
a(I10
F0.0027100271002710027
tp427
a(I11
F0.0016286644951140066
tp428
a(I12
F0.0015503875968992248
tp429
a(I42
F0.0015015015015015015
tp430
a(I43
F0.0019607843137254902
tp431
a(I44
F0.0019230769230769232
tp432
a(I35
F0.009823182711198428
tp433
a(I17
F0.014754098360655738
tp434
a(I18
F0.010615711252653927
tp435
a(I19
F0.0080971659919028341
tp436
a(I20
F0.016129032258064516
tp437
a(I21
F0.017167381974248927
tp438
a(I22
F0.011705685618729096
tp439
a(I23
F0.034120734908136482
tp440
a(I24
F0.016216216216216217
tp441
a(I25
F0.0078369905956112845
tp442
a(I26
F0.0073710073710073713
tp443
a(I27
F0.010660980810234541
tp444
a(I28
F0.010351966873706004
tp445
a(I29
F0.013333333333333334
tp446
a(I31
F0.014409221902017291
tp447
a(I32
F0.0069686411149825784
tp448
aa(lp449
(I13
F0.0076923076923076927
tp450
a(I14
F0.047244094488188976
tp451
a(I16
F0.059999999999999998
tp452
a(I33
F0.07575757575757576
tp453
a(I34
F0.066666666666666666
tp454
a(I49
F0.080152671755725186
tp455
a(I50
F0.079365079365079361
tp456
a(I51
F0.1124031007751938
tp457
a(I52
F0.095238095238095233
tp458
a(I54
F0.13636363636363635
tp459
a(I3
F0.0017064846416382253
tp460
a(I4
F0.0020491803278688526
tp461
a(I8
F0.0015723270440251573
tp462
a(I53
F0.014005602240896359
tp463
a(I35
F0.01768172888015717
tp464
a(I18
F0.063694267515923567
tp465
a(I19
F0.074898785425101214
tp466
a(I20
F0.057184750733137828
tp467
a(I21
F0.055793991416309016
tp468
a(I22
F0.061872909698996656
tp469
a(I23
F0.041994750656167978
tp470
a(I24
F0.03783783783783784
tp471
a(I25
F0.062695924764890276
tp472
a(I26
F0.083538083538083535
tp473
a(I27
F0.063965884861407252
tp474
a(I28
F0.068322981366459631
tp475
a(I29
F0.064444444444444443
tp476
a(I30
F0.084183673469387751
tp477
a(I31
F0.057636887608069162
tp478
a(I32
F0.062717770034843204
tp479
aa(lp480
(I13
F0.061538461538461542
tp481
a(I14
F0.015748031496062992
tp482
a(I15
F0.068965517241379309
tp483
a(I16
F0.033333333333333333
tp484
a(I33
F0.045454545454545456
tp485
a(I49
F0.022900763358778626
tp486
a(I50
F0.035714285714285712
tp487
a(I52
F0.019047619047619049
tp488
a(I35
F0.015717092337917484
tp489
a(I17
F0.049180327868852458
tp490
a(I19
F0.04048582995951417
tp491
a(I20
F0.049853372434017593
tp492
a(I21
F0.047210300429184553
tp493
a(I22
F0.075250836120401343
tp494
a(I23
F0.049868766404199474
tp495
a(I24
F0.032432432432432434
tp496
a(I25
F0.072100313479623826
tp497
a(I26
F0.012285012285012284
tp498
a(I27
F0.089552238805970144
tp499
a(I28
F0.093167701863354033
tp500
a(I29
F0.091111111111111115
tp501
a(I30
F0.01020408163265306
tp502
a(I31
F0.051873198847262249
tp503
a(I32
F0.03484320557491289
tp504
aa(lp505
(I13
F0.0076923076923076927
tp506
a(I14
F0.055118110236220472
tp507
a(I16
F0.026666666666666668
tp508
a(I33
F0.07575757575757576
tp509
a(I34
F0.066666666666666666
tp510
a(I49
F0.087786259541984726
tp511
a(I50
F0.051587301587301584
tp512
a(I51
F0.13178294573643412
tp513
a(I52
F0.10476190476190476
tp514
a(I54
F0.13636363636363635
tp515
a(I53
F0.011204481792717087
tp516
a(I35
F0.021611001964636542
tp517
a(I17
F0.060655737704918035
tp518
a(I18
F0.042462845010615709
tp519
a(I20
F0.054252199413489736
tp520
a(I21
F0.051502145922746781
tp521
a(I22
F0.043478260869565216
tp522
a(I23
F0.034120734908136482
tp523
a(I24
F0.043243243243243246
tp524
a(I25
F0.050156739811912224
tp525
a(I26
F0.046683046683046681
tp526
a(I27
F0.042643923240938165
tp527
a(I28
F0.041407867494824016
tp528
a(I29
F0.040000000000000001
tp529
a(I30
F0.048469387755102039
tp530
a(I31
F0.050432276657060522
tp531
a(I32
F0.050522648083623695
tp532
aa(lp533
(I13
F0.069230769230769235
tp534
a(I14
F0.094488188976377951
tp535
a(I15
F0.068965517241379309
tp536
a(I16
F0.073333333333333334
tp537
a(I33
F0.07575757575757576
tp538
a(I34
F0.1111111111111111
tp539
a(I49
F0.087786259541984726
tp540
a(I50
F0.063492063492063489
tp541
a(I51
F0.11627906976744186
tp542
a(I52
F0.076190476190476197
tp543
a(I54
F0.090909090909090912
tp544
a(I2
F0.0028571428571428571
tp545
a(I3
F0.0051194539249146756
tp546
a(I6
F0.0016722408026755853
tp547
a(I8
F0.0031446540880503146
tp548
a(I53
F0.033613445378151259
tp549
a(I41
F0.0021052631578947368
tp550
a(I9
F0.0044543429844097994
tp551
a(I11
F0.0032573289902280132
tp552
a(I12
F0.0046511627906976744
tp553
a(I42
F0.006006006006006006
tp554
a(I43
F0.0039215686274509803
tp555
a(I44
F0.0019230769230769232
tp556
a(I35
F0.023575638506876228
tp557
a(I17
F0.063934426229508193
tp558
a(I18
F0.072186836518046707
tp559
a(I19
F0.074898785425101214
tp560
a(I21
F0.061516452074391992
tp561
a(I22
F0.06354515050167224
tp562
a(I23
F0.055118110236220472
tp563
a(I24
F0.070270270270270274
tp564
a(I25
F0.064263322884012541
tp565
a(I26
F0.081081081081081086
tp566
a(I27
F0.066098081023454158
tp567
a(I28
F0.070393374741200831
tp568
a(I29
F0.066666666666666666
tp569
a(I30
F0.076530612244897961
tp570
a(I31
F0.061959654178674349
tp571
a(I32
F0.073170731707317069
tp572
aa(lp573
(I13
F0.053846153846153849
tp574
a(I14
F0.07874015748031496
tp575
a(I1
F0.011695906432748537
tp576
a(I15
F0.034482758620689655
tp577
a(I45
F0.14285714285714285
tp578
a(I16
F0.080000000000000002
tp579
a(I33
F0.07575757575757576
tp580
a(I34
F0.088888888888888892
tp581
a(I49
F0.083969465648854963
tp582
a(I50
F0.063492063492063489
tp583
a(I51
F0.089147286821705432
tp584
a(I52
F0.095238095238095233
tp585
a(I54
F0.07575757575757576
tp586
a(I2
F0.0085714285714285719
tp587
a(I3
F0.0051194539249146756
tp588
a(I4
F0.0040983606557377051
tp589
a(I5
F0.0070671378091872791
tp590
a(I46
F0.018518518518518517
tp591
a(I6
F0.0033444816053511705
tp592
a(I7
F0.0056179775280898875
tp593
a(I8
F0.0047169811320754715
tp594
a(I40
F0.0064516129032258064
tp595
a(I53
F0.014005602240896359
tp596
a(I41
F0.0042105263157894736
tp597
a(I9
F0.0044543429844097994
tp598
a(I10
F0.0054200542005420054
tp599
a(I11
F0.0048859934853420191
tp600
a(I12
F0.0046511627906976744
tp601
a(I42
F0.0045045045045045045
tp602
a(I43
F0.0019607843137254902
tp603
a(I44
F0.0038461538461538464
tp604
a(I47
F0.032258064516129031
tp605
a(I48
F0.010638297872340425
tp606
a(I35
F0.023575638506876228
tp607
a(I17
F0.063934426229508193
tp608
a(I18
F0.070063694267515922
tp609
a(I19
F0.0728744939271255
tp610
a(I20
F0.063049853372434017
tp611
a(I22
F0.070234113712374577
tp612
a(I23
F0.062992125984251968
tp613
a(I24
F0.081081081081081086
tp614
a(I25
F0.073667711598746077
tp615
a(I26
F0.078624078624078622
tp616
a(I27
F0.068230277185501065
tp617
a(I28
F0.070393374741200831
tp618
a(I29
F0.068888888888888888
tp619
a(I30
F0.079081632653061229
tp620
a(I31
F0.063400576368876083
tp621
a(I32
F0.06968641114982578
tp622
aa(lp623
(I13
F0.061538461538461542
tp624
a(I14
F0.055118110236220472
tp625
a(I15
F0.034482758620689655
tp626
a(I16
F0.046666666666666669
tp627
a(I33
F0.045454545454545456
tp628
a(I34
F0.066666666666666666
tp629
a(I49
F0.034351145038167941
tp630
a(I50
F0.047619047619047616
tp631
a(I51
F0.027131782945736434
tp632
a(I52
F0.028571428571428571
tp633
a(I54
F0.030303030303030304
tp634
a(I2
F0.0028571428571428571
tp635
a(I4
F0.0020491803278688526
tp636
a(I7
F0.0028089887640449437
tp637
a(I40
F0.0032258064516129032
tp638
a(I53
F0.0084033613445378148
tp639
a(I9
F0.0022271714922048997
tp640
a(I10
F0.0027100271002710027
tp641
a(I11
F0.0016286644951140066
tp642
a(I12
F0.0015503875968992248
tp643
a(I42
F0.0015015015015015015
tp644
a(I35
F0.019646365422396856
tp645
a(I17
F0.060655737704918035
tp646
a(I18
F0.095541401273885357
tp647
a(I19
F0.052631578947368418
tp648
a(I20
F0.055718475073313782
tp649
a(I21
F0.060085836909871244
tp650
a(I23
F0.05774278215223097
tp651
a(I24
F0.059459459459459463
tp652
a(I25
F0.081504702194357362
tp653
a(I26
F0.041769041769041768
tp654
a(I27
F0.095948827292110878
tp655
a(I28
F0.091097308488612833
tp656
a(I29
F0.091111111111111115
tp657
a(I30
F0.053571428571428568
tp658
a(I31
F0.063400576368876083
tp659
a(I32
F0.050522648083623695
tp660
aa(lp661
(I13
F0.069230769230769235
tp662
a(I14
F0.11811023622047244
tp663
a(I15
F0.068965517241379309
tp664
a(I16
F0.08666666666666667
tp665
a(I33
F0.060606060606060608
tp666
a(I34
F0.066666666666666666
tp667
a(I49
F0.034351145038167941
tp668
a(I50
F0.027777777777777776
tp669
a(I51
F0.01937984496124031
tp670
a(I53
F0.0084033613445378148
tp671
a(I35
F0.009823182711198428
tp672
a(I17
F0.026229508196721311
tp673
a(I18
F0.040339702760084924
tp674
a(I19
F0.026315789473684209
tp675
a(I20
F0.030791788856304986
tp676
a(I21
F0.034334763948497854
tp677
a(I22
F0.03678929765886288
tp678
a(I24
F0.070270270270270274
tp679
a(I25
F0.029780564263322883
tp680
a(I26
F0.063882063882063883
tp681
a(I27
F0.040511727078891259
tp682
a(I28
F0.039337474120082816
tp683
a(I29
F0.042222222222222223
tp684
a(I30
F0.066326530612244902
tp685
a(I31
F0.034582132564841501
tp686
a(I32
F0.045296167247386762
tp687
aa(lp688
(I13
F0.069230769230769235
tp689
a(I14
F0.055118110236220472
tp690
a(I15
F0.068965517241379309
tp691
a(I16
F0.02
tp692
a(I38
F0.017543859649122806
tp693
a(I33
F0.07575757575757576
tp694
a(I34
F0.066666666666666666
tp695
a(I49
F0.011450381679389313
tp696
a(I50
F0.011904761904761904
tp697
a(I51
F0.003875968992248062
tp698
a(I35
F0.009823182711198428
tp699
a(I17
F0.011475409836065573
tp700
a(I18
F0.012738853503184714
tp701
a(I19
F0.016194331983805668
tp702
a(I20
F0.01906158357771261
tp703
a(I21
F0.021459227467811159
tp704
a(I22
F0.01839464882943144
tp705
a(I23
F0.034120734908136482
tp706
a(I25
F0.021943573667711599
tp707
a(I26
F0.019656019656019656
tp708
a(I27
F0.01279317697228145
tp709
a(I28
F0.012422360248447204
tp710
a(I29
F0.015555555555555555
tp711
a(I30
F0.015306122448979591
tp712
a(I31
F0.020172910662824207
tp713
a(I32
F0.015679442508710801
tp714
aa(lp715
(I13
F0.069230769230769235
tp716
a(I14
F0.023622047244094488
tp717
a(I15
F0.068965517241379309
tp718
a(I16
F0.033333333333333333
tp719
a(I38
F0.017543859649122806
tp720
a(I33
F0.045454545454545456
tp721
a(I34
F0.022222222222222223
tp722
a(I49
F0.045801526717557252
tp723
a(I50
F0.071428571428571425
tp724
a(I51
F0.042635658914728682
tp725
a(I52
F0.047619047619047616
tp726
a(I54
F0.060606060606060608
tp727
a(I2
F0.011428571428571429
tp728
a(I3
F0.0051194539249146756
tp729
a(I4
F0.0040983606557377051
tp730
a(I8
F0.0015723270440251573
tp731
a(I53
F0.01680672268907563
tp732
a(I11
F0.0032573289902280132
tp733
a(I12
F0.0031007751937984496
tp734
a(I42
F0.003003003003003003
tp735
a(I35
F0.015717092337917484
tp736
a(I17
F0.065573770491803282
tp737
a(I18
F0.097664543524416142
tp738
a(I19
F0.064777327935222673
tp739
a(I20
F0.060117302052785926
tp740
a(I21
F0.067238912732474967
tp741
a(I22
F0.086956521739130432
tp742
a(I23
F0.049868766404199474
tp743
a(I24
F0.07567567567567568
tp744
a(I26
F0.036855036855036855
tp745
a(I27
F0.098081023454157784
tp746
a(I28
F0.095238095238095233
tp747
a(I29
F0.093333333333333338
tp748
a(I30
F0.04336734693877551
tp749
a(I31
F0.069164265129683003
tp750
a(I32
F0.050522648083623695
tp751
aa(lp752
(I13
F0.069230769230769235
tp753
a(I14
F0.055118110236220472
tp754
a(I15
F0.068965517241379309
tp755
a(I16
F0.02
tp756
a(I34
F0.022222222222222223
tp757
a(I49
F0.022900763358778626
tp758
a(I50
F0.087301587301587297
tp759
a(I51
F0.011627906976744186
tp760
a(I54
F0.045454545454545456
tp761
a(I35
F0.009823182711198428
tp762
a(I17
F0.055737704918032788
tp763
a(I18
F0.010615711252653927
tp764
a(I19
F0.038461538461538464
tp765
a(I20
F0.048387096774193547
tp766
a(I21
F0.045779685264663805
tp767
a(I22
F0.028428093645484948
tp768
a(I23
F0.068241469816272965
tp769
a(I24
F0.043243243243243246
tp770
a(I25
F0.023510971786833857
tp771
a(I27
F0.010660980810234541
tp772
a(I28
F0.010351966873706004
tp773
a(I29
F0.011111111111111112
tp774
a(I30
F0.14030612244897958
tp775
a(I31
F0.048991354466858789
tp776
a(I32
F0.092334494773519168
tp777
aa(lp778
(I13
F0.053846153846153849
tp779
a(I14
F0.015748031496062992
tp780
a(I15
F0.068965517241379309
tp781
a(I16
F0.033333333333333333
tp782
a(I33
F0.045454545454545456
tp783
a(I49
F0.022900763358778626
tp784
a(I50
F0.03968253968253968
tp785
a(I52
F0.019047619047619049
tp786
a(I35
F0.015717092337917484
tp787
a(I17
F0.049180327868852458
tp788
a(I18
F0.089171974522292988
tp789
a(I19
F0.04048582995951417
tp790
a(I20
F0.045454545454545456
tp791
a(I21
F0.045779685264663805
tp792
a(I22
F0.075250836120401343
tp793
a(I23
F0.049868766404199474
tp794
a(I24
F0.032432432432432434
tp795
a(I25
F0.072100313479623826
tp796
a(I26
F0.012285012285012284
tp797
a(I28
F0.095238095238095233
tp798
a(I29
F0.093333333333333338
tp799
a(I30
F0.01020408163265306
tp800
a(I31
F0.051873198847262249
tp801
a(I32
F0.03484320557491289
tp802
aa(lp803
(I13
F0.053846153846153849
tp804
a(I14
F0.015748031496062992
tp805
a(I15
F0.068965517241379309
tp806
a(I16
F0.033333333333333333
tp807
a(I33
F0.045454545454545456
tp808
a(I49
F0.022900763358778626
tp809
a(I50
F0.043650793650793648
tp810
a(I52
F0.019047619047619049
tp811
a(I35
F0.015717092337917484
tp812
a(I17
F0.054098360655737705
tp813
a(I18
F0.095541401273885357
tp814
a(I19
F0.04048582995951417
tp815
a(I20
F0.049853372434017593
tp816
a(I21
F0.048640915593705293
tp817
a(I22
F0.073578595317725759
tp818
a(I23
F0.049868766404199474
tp819
a(I24
F0.032432432432432434
tp820
a(I25
F0.072100313479623826
tp821
a(I26
F0.012285012285012284
tp822
a(I27
F0.098081023454157784
tp823
a(I29
F0.093333333333333338
tp824
a(I30
F0.01020408163265306
tp825
a(I31
F0.056195965417867436
tp826
a(I32
F0.03484320557491289
tp827
aa(lp828
(I13
F0.069230769230769235
tp829
a(I14
F0.015748031496062992
tp830
a(I15
F0.068965517241379309
tp831
a(I16
F0.040000000000000001
tp832
a(I33
F0.045454545454545456
tp833
a(I49
F0.022900763358778626
tp834
a(I50
F0.043650793650793648
tp835
a(I52
F0.019047619047619049
tp836
a(I35
F0.015717092337917484
tp837
a(I17
F0.047540983606557376
tp838
a(I18
F0.087048832271762203
tp839
a(I19
F0.03643724696356275
tp840
a(I20
F0.04398826979472141
tp841
a(I21
F0.044349070100143065
tp842
a(I22
F0.068561872909698993
tp843
a(I23
F0.049868766404199474
tp844
a(I24
F0.03783783783783784
tp845
a(I25
F0.065830721003134793
tp846
a(I26
F0.012285012285012284
tp847
a(I27
F0.089552238805970144
tp848
a(I28
F0.086956521739130432
tp849
a(I30
F0.0025510204081632651
tp850
a(I31
F0.053314121037463975
tp851
a(I32
F0.027874564459930314
tp852
aa(lp853
(I13
F0.069230769230769235
tp854
a(I14
F0.023622047244094488
tp855
a(I15
F0.068965517241379309
tp856
a(I34
F0.022222222222222223
tp857
a(I49
F0.026717557251908396
tp858
a(I50
F0.083333333333333329
tp859
a(I51
F0.011627906976744186
tp860
a(I52
F0.0095238095238095247
tp861
a(I54
F0.045454545454545456
tp862
a(I35
F0.009823182711198428
tp863
a(I17
F0.054098360655737705
tp864
a(I18
F0.0084925690021231421
tp865
a(I19
F0.038461538461538464
tp866
a(I20
F0.04398826979472141
tp867
a(I21
F0.044349070100143065
tp868
a(I22
F0.035117056856187288
tp869
a(I23
F0.068241469816272965
tp870
a(I24
F0.032432432432432434
tp871
a(I25
F0.02664576802507837
tp872
a(I26
F0.13513513513513514
tp873
a(I27
F0.0085287846481876331
tp874
a(I28
F0.0082815734989648039
tp875
a(I29
F0.0022222222222222222
tp876
a(I31
F0.048991354466858789
tp877
a(I32
F0.090592334494773524
tp878
aa(lp879
(I13
F0.061538461538461542
tp880
a(I14
F0.070866141732283464
tp881
a(I15
F0.068965517241379309
tp882
a(I16
F0.066666666666666666
tp883
a(I33
F0.060606060606060608
tp884
a(I34
F0.066666666666666666
tp885
a(I49
F0.087786259541984726
tp886
a(I50
F0.083333333333333329
tp887
a(I51
F0.12015503875968993
tp888
a(I52
F0.085714285714285715
tp889
a(I54
F0.13636363636363635
tp890
a(I53
F0.01680672268907563
tp891
a(I35
F0.019646365422396856
tp892
a(I17
F0.065573770491803282
tp893
a(I18
F0.076433121019108277
tp894
a(I19
F0.0708502024291498
tp895
a(I20
F0.063049853372434017
tp896
a(I21
F0.062947067238912732
tp897
a(I22
F0.073578595317725759
tp898
a(I23
F0.062992125984251968
tp899
a(I24
F0.07567567567567568
tp900
a(I25
F0.075235109717868343
tp901
a(I26
F0.083538083538083535
tp902
a(I27
F0.076759061833688705
tp903
a(I28
F0.080745341614906832
tp904
a(I29
F0.082222222222222224
tp905
a(I30
F0.08673469387755102
tp906
a(I32
F0.071428571428571425
tp907
aa(lp908
(I13
F0.069230769230769235
tp909
a(I14
F0.062992125984251968
tp910
a(I15
F0.068965517241379309
tp911
a(I16
F0.026666666666666668
tp912
a(I33
F0.015151515151515152
tp913
a(I34
F0.044444444444444446
tp914
a(I49
F0.057251908396946563
tp915
a(I50
F0.095238095238095233
tp916
a(I51
F0.073643410852713184
tp917
a(I52
F0.076190476190476197
tp918
a(I54
F0.10606060606060606
tp919
a(I2
F0.0028571428571428571
tp920
a(I3
F0.0017064846416382253
tp921
a(I8
F0.0015723270440251573
tp922
a(I53
F0.014005602240896359
tp923
a(I35
F0.009823182711198428
tp924
a(I17
F0.059016393442622953
tp925
a(I18
F0.042462845010615709
tp926
a(I19
F0.058704453441295545
tp927
a(I20
F0.061583577712609971
tp928
a(I21
F0.057224606580829757
tp929
a(I22
F0.048494983277591976
tp930
a(I23
F0.068241469816272965
tp931
a(I24
F0.048648648648648651
tp932
a(I25
F0.045454545454545456
tp933
a(I26
F0.13022113022113022
tp934
a(I27
F0.042643923240938165
tp935
a(I28
F0.041407867494824016
tp936
a(I29
F0.035555555555555556
tp937
a(I30
F0.1326530612244898
tp938
a(I31
F0.059077809798270896
tp939
aa(lp940
(I14
F0.03937007874015748
tp941
a(I16
F0.033333333333333333
tp942
a(I34
F0.066666666666666666
tp943
a(I35
F0.0019646365422396855
tp944
a(I17
F0.0081967213114754103
tp945
a(I18
F0.006369426751592357
tp946
a(I19
F0.010121457489878543
tp947
a(I20
F0.007331378299120235
tp948
a(I21
F0.0071530758226037196
tp949
a(I22
F0.005016722408026756
tp950
a(I23
F0.010498687664041995
tp951
a(I24
F0.027027027027027029
tp952
a(I25
F0.0047021943573667714
tp953
a(I27
F0.0063965884861407248
tp954
a(I28
F0.0062111801242236021
tp955
a(I29
F0.0066666666666666671
tp956
a(I31
F0.005763688760806916
tp957
a(I32
F0.0017421602787456446
tp958
aa(lp959
(I14
F0.023622047244094488
tp960
a(I16
F0.033333333333333333
tp961
a(I33
F0.045454545454545456
tp962
a(I35
F0.003929273084479371
tp963
a(I17
F0.0049180327868852463
tp964
a(I19
F0.0060728744939271256
tp965
a(I20
F0.007331378299120235
tp966
a(I21
F0.0057224606580829757
tp967
a(I22
F0.005016722408026756
tp968
a(I23
F0.007874015748031496
tp969
a(I24
F0.016216216216216217
tp970
a(I25
F0.001567398119122257
tp971
a(I26
F0.0024570024570024569
tp972
a(I30
F0.0025510204081632651
tp973
a(I31
F0.0043227665706051877
tp974
a(I32
F0.0034843205574912892
tp975
aa(lp976
(I14
F0.023622047244094488
tp977
a(I1
F0.058479532163742687
tp978
a(I45
F0.071428571428571425
tp979
a(I16
F0.033333333333333333
tp980
a(I36
F0.049382716049382713
tp981
a(I37
F0.071428571428571425
tp982
a(I38
F0.052631578947368418
tp983
a(I39
F0.12121212121212122
tp984
a(I33
F0.015151515151515152
tp985
a(I34
F0.044444444444444446
tp986
a(I49
F0.034351145038167941
tp987
a(I50
F0.011904761904761904
tp988
a(I51
F0.027131782945736434
tp989
a(I52
F0.028571428571428571
tp990
a(I2
F0.031428571428571431
tp991
a(I3
F0.04778156996587031
tp992
a(I4
F0.05737704918032787
tp993
a(I5
F0.042402826855123678
tp994
a(I46
F0.055555555555555552
tp995
a(I6
F0.033444816053511704
tp996
a(I7
F0.047752808988764044
tp997
a(I8
F0.033018867924528301
tp998
a(I40
F0.032258064516129031
tp999
a(I53
F0.01680672268907563
tp1000
a(I41
F0.035789473684210524
tp1001
a(I9
F0.040089086859688199
tp1002
a(I10
F0.04065040650406504
tp1003
a(I11
F0.032573289902280131
tp1004
a(I12
F0.03255813953488372
tp1005
a(I42
F0.037537537537537538
tp1006
a(I43
F0.035294117647058823
tp1007
a(I44
F0.03653846153846154
tp1008
a(I47
F0.032258064516129031
tp1009
a(I48
F0.095744680851063829
tp1010
a(I17
F0.014754098360655738
tp1011
a(I18
F0.016985138004246284
tp1012
a(I19
F0.022267206477732792
tp1013
a(I20
F0.017595307917888565
tp1014
a(I21
F0.017167381974248927
tp1015
a(I22
F0.016722408026755852
tp1016
a(I23
F0.013123359580052493
tp1017
a(I24
F0.027027027027027029
tp1018
a(I25
F0.012539184952978056
tp1019
a(I26
F0.012285012285012284
tp1020
a(I27
F0.017057569296375266
tp1021
a(I28
F0.016563146997929608
tp1022
a(I29
F0.017777777777777778
tp1023
a(I30
F0.012755102040816327
tp1024
a(I31
F0.014409221902017291
tp1025
a(I32
F0.0087108013937282226
tp1026
aa(lp1027
(I1
F0.046783625730994149
tp1028
a(I16
F0.0066666666666666671
tp1029
a(I37
F0.10714285714285714
tp1030
a(I2
F0.014285714285714285
tp1031
a(I3
F0.013651877133105802
tp1032
a(I4
F0.016393442622950821
tp1033
a(I5
F0.028268551236749116
tp1034
a(I46
F0.1111111111111111
tp1035
a(I6
F0.011705685618729096
tp1036
a(I7
F0.025280898876404494
tp1037
a(I8
F0.014150943396226415
tp1038
a(I40
F0.016129032258064516
tp1039
a(I41
F0.018947368421052633
tp1040
a(I9
F0.017817371937639197
tp1041
a(I10
F0.024390243902439025
tp1042
a(I11
F0.011400651465798045
tp1043
a(I12
F0.013953488372093023
tp1044
a(I42
F0.010510510510510511
tp1045
a(I43
F0.017647058823529412
tp1046
a(I44
F0.017307692307692309
tp1047
a(I47
F0.12903225806451613
tp1048
a(I48
F0.063829787234042548
tp1049
a(I35
F0.015717092337917484
tp1050
aa(lp1051
(I1
F0.017543859649122806
tp1052
a(I36
F0.018518518518518517
tp1053
a(I38
F0.017543859649122806
tp1054
a(I2
F0.0057142857142857143
tp1055
a(I3
F0.0051194539249146756
tp1056
a(I4
F0.0040983606557377051
tp1057
a(I5
F0.0070671378091872791
tp1058
a(I46
F0.018518518518518517
tp1059
a(I8
F0.0031446540880503146
tp1060
a(I40
F0.0032258064516129032
tp1061
a(I10
F0.0027100271002710027
tp1062
a(I11
F0.0016286644951140066
tp1063
a(I12
F0.0015503875968992248
tp1064
a(I42
F0.0015015015015015015
tp1065
a(I44
F0.0019230769230769232
tp1066
a(I48
F0.010638297872340425
tp1067
a(I35
F0.003929273084479371
tp1068
aa(lp1069
(I1
F0.011695906432748537
tp1070
a(I37
F0.035714285714285712
tp1071
a(I39
F0.090909090909090912
tp1072
a(I2
F0.014285714285714285
tp1073
a(I3
F0.0034129692832764505
tp1074
a(I4
F0.0040983606557377051
tp1075
a(I5
F0.010600706713780919
tp1076
a(I46
F0.07407407407407407
tp1077
a(I6
F0.0016722408026755853
tp1078
a(I7
F0.0056179775280898875
tp1079
a(I8
F0.0031446540880503146
tp1080
a(I40
F0.0064516129032258064
tp1081
a(I41
F0.0042105263157894736
tp1082
a(I9
F0.0044543429844097994
tp1083
a(I10
F0.0054200542005420054
tp1084
a(I11
F0.0032573289902280132
tp1085
a(I12
F0.0046511627906976744
tp1086
a(I42
F0.0045045045045045045
tp1087
a(I43
F0.0039215686274509803
tp1088
a(I44
F0.0038461538461538464
tp1089
a(I48
F0.053191489361702128
tp1090
a(I35
F0.005893909626719057
tp1091
a(I24
F0.0054054054054054057
tp1092
a(I25
F0.001567398119122257
tp1093
aa(lp1094
(I1
F0.0058479532163742687
tp1095
a(I38
F0.052631578947368418
tp1096
a(I2
F0.02
tp1097
a(I3
F0.0017064846416382253
tp1098
a(I4
F0.0020491803278688526
tp1099
a(I5
F0.0035335689045936395
tp1100
a(I46
F0.037037037037037035
tp1101
a(I42
F0.0090090090090090089
tp1102
a(I48
F0.074468085106382975
tp1103
a(I35
F0.0078585461689587421
tp1104
aa(lp1105
(I1
F0.017543859649122806
tp1106
a(I16
F0.0066666666666666671
tp1107
a(I36
F0.030864197530864196
tp1108
a(I37
F0.035714285714285712
tp1109
a(I38
F0.035087719298245612
tp1110
a(I2
F0.022857142857142857
tp1111
a(I3
F0.040955631399317405
tp1112
a(I4
F0.047131147540983603
tp1113
a(I5
F0.031802120141342753
tp1114
a(I6
F0.03678929765886288
tp1115
a(I7
F0.036516853932584269
tp1116
a(I8
F0.037735849056603772
tp1117
a(I53
F0.01680672268907563
tp1118
a(I41
F0.025263157894736842
tp1119
a(I9
F0.037861915367483297
tp1120
a(I10
F0.059620596205962058
tp1121
a(I11
F0.037459283387622153
tp1122
a(I12
F0.03565891472868217
tp1123
a(I42
F0.028528528528528527
tp1124
a(I43
F0.039215686274509803
tp1125
a(I44
F0.038461538461538464
tp1126
a(I35
F0.019646365422396856
tp1127
a(I21
F0.0028612303290414878
tp1128
a(I22
F0.0016722408026755853
tp1129
aa(lp1130
(I1
F0.035087719298245612
tp1131
a(I16
F0.0066666666666666671
tp1132
a(I36
F0.055555555555555552
tp1133
a(I38
F0.035087719298245612
tp1134
a(I2
F0.054285714285714284
tp1135
a(I3
F0.04607508532423208
tp1136
a(I4
F0.020491803278688523
tp1137
a(I5
F0.045936395759717315
tp1138
a(I6
F0.071906354515050161
tp1139
a(I7
F0.033707865168539325
tp1140
a(I8
F0.072327044025157231
tp1141
a(I40
F0.03870967741935484
tp1142
a(I53
F0.056022408963585436
tp1143
a(I9
F0.051224944320712694
tp1144
a(I10
F0.062330623306233061
tp1145
a(I11
F0.070032573289902283
tp1146
a(I12
F0.068217054263565891
tp1147
a(I42
F0.058558558558558557
tp1148
a(I43
F0.056862745098039215
tp1149
a(I44
F0.065384615384615388
tp1150
a(I35
F0.033398821218074658
tp1151
a(I20
F0.0014662756598240469
tp1152
a(I21
F0.0028612303290414878
tp1153
aa(lp1154
(I1
F0.076023391812865493
tp1155
a(I45
F0.14285714285714285
tp1156
a(I16
F0.0066666666666666671
tp1157
a(I36
F0.043209876543209874
tp1158
a(I37
F0.035714285714285712
tp1159
a(I38
F0.052631578947368418
tp1160
a(I39
F0.18181818181818182
tp1161
a(I2
F0.11428571428571428
tp1162
a(I3
F0.085324232081911269
tp1163
a(I4
F0.081967213114754092
tp1164
a(I5
F0.056537102473498232
tp1165
a(I46
F0.1111111111111111
tp1166
a(I6
F0.073578595317725759
tp1167
a(I7
F0.0702247191011236
tp1168
a(I8
F0.069182389937106917
tp1169
a(I40
F0.061290322580645158
tp1170
a(I53
F0.078431372549019607
tp1171
a(I41
F0.082105263157894737
tp1172
a(I9
F0.075723830734966593
tp1173
a(I10
F0.065040650406504072
tp1174
a(I11
F0.073289902280130298
tp1175
a(I12
F0.07441860465116279
tp1176
a(I43
F0.072549019607843143
tp1177
a(I44
F0.073076923076923081
tp1178
a(I47
F0.12903225806451613
tp1179
a(I48
F0.18085106382978725
tp1180
a(I35
F0.049115913555992138
tp1181
a(I20
F0.0058651026392961877
tp1182
a(I21
F0.0042918454935622317
tp1183
a(I22
F0.0016722408026755853
tp1184
a(I25
F0.003134796238244514
tp1185
aa(lp1186
(I1
F0.040935672514619881
tp1187
a(I16
F0.0066666666666666671
tp1188
a(I36
F0.055555555555555552
tp1189
a(I38
F0.035087719298245612
tp1190
a(I2
F0.045714285714285714
tp1191
a(I3
F0.051194539249146756
tp1192
a(I4
F0.053278688524590161
tp1193
a(I5
F0.053003533568904596
tp1194
a(I6
F0.068561872909698993
tp1195
a(I7
F0.06741573033707865
tp1196
a(I8
F0.06761006289308176
tp1197
a(I40
F0.064516129032258063
tp1198
a(I53
F0.047619047619047616
tp1199
a(I41
F0.061052631578947365
tp1200
a(I9
F0.066815144766147
tp1201
a(I10
F0.062330623306233061
tp1202
a(I11
F0.066775244299674269
tp1203
a(I12
F0.063565891472868216
tp1204
a(I42
F0.055555555555555552
tp1205
a(I44
F0.071153846153846151
tp1206
a(I35
F0.03536345776031434
tp1207
a(I20
F0.0029325513196480938
tp1208
a(I21
F0.0014306151645207439
tp1209
aa(lp1210
(I1
F0.040935672514619881
tp1211
a(I16
F0.0066666666666666671
tp1212
a(I36
F0.055555555555555552
tp1213
a(I37
F0.035714285714285712
tp1214
a(I38
F0.035087719298245612
tp1215
a(I2
F0.048571428571428571
tp1216
a(I3
F0.051194539249146756
tp1217
a(I4
F0.043032786885245901
tp1218
a(I5
F0.045936395759717315
tp1219
a(I6
F0.070234113712374577
tp1220
a(I7
F0.073033707865168537
tp1221
a(I8
F0.069182389937106917
tp1222
a(I40
F0.064516129032258063
tp1223
a(I53
F0.047619047619047616
tp1224
a(I41
F0.071578947368421048
tp1225
a(I9
F0.07126948775055679
tp1226
a(I10
F0.065040650406504072
tp1227
a(I11
F0.066775244299674269
tp1228
a(I12
F0.065116279069767441
tp1229
a(I42
F0.057057057057057055
tp1230
a(I43
F0.072549019607843143
tp1231
a(I35
F0.03732809430255403
tp1232
a(I20
F0.0014662756598240469
tp1233
a(I21
F0.0028612303290414878
tp1234
aa(lp1235
(I2
F0.0057142857142857143
tp1236
a(I5
F0.0035335689045936395
tp1237
a(I46
F0.018518518518518517
tp1238
a(I8
F0.0015723270440251573
tp1239
a(I10
F0.0027100271002710027
tp1240
a(I12
F0.0015503875968992248
tp1241
a(I42
F0.003003003003003003
tp1242
a(I47
F0.032258064516129031
tp1243
a(I48
F0.010638297872340425
tp1244
a(I35
F0.0019646365422396855
tp1245
a(I21
F0.0028612303290414878
tp1246
aa(lp1247
(I45
F0.071428571428571425
tp1248
a(I36
F0.037037037037037035
tp1249
a(I37
F0.035714285714285712
tp1250
a(I38
F0.070175438596491224
tp1251
a(I39
F0.060606060606060608
tp1252
a(I2
F0.0085714285714285719
tp1253
a(I5
F0.028268551236749116
tp1254
a(I42
F0.0090090090090090089
tp1255
a(I47
F0.22580645161290322
tp1256
a(I48
F0.1276595744680851
tp1257
a(I35
F0.005893909626719057
tp1258
a(I21
F0.0014306151645207439
tp1259
aa(lp1260
(I45
F0.071428571428571425
tp1261
a(I36
F0.024691358024691357
tp1262
a(I2
F0.0028571428571428571
tp1263
a(I5
F0.017667844522968199
tp1264
a(I46
F0.12962962962962962
tp1265
a(I42
F0.006006006006006006
tp1266
a(I48
F0.074468085106382975
tp1267
a(I35
F0.0019646365422396855
tp1268
a(I21
F0.0014306151645207439
tp1269
aa(lp1270
(I45
F0.071428571428571425
tp1271
a(I36
F0.037037037037037035
tp1272
a(I37
F0.035714285714285712
tp1273
a(I38
F0.08771929824561403
tp1274
a(I39
F0.21212121212121213
tp1275
a(I2
F0.037142857142857144
tp1276
a(I5
F0.031802120141342753
tp1277
a(I46
F0.22222222222222221
tp1278
a(I53
F0.01680672268907563
tp1279
a(I42
F0.025525525525525526
tp1280
a(I47
F0.22580645161290322
tp1281
a(I35
F0.01768172888015717
tp1282
a(I21
F0.0014306151645207439
tp1283
aa(lp1284
(I50
F0.03968253968253968
tp1285
a(I51
F0.085271317829457363
tp1286
a(I52
F0.12380952380952381
tp1287
a(I53
F0.03081232492997199
tp1288
a(I35
F0.01768172888015717
tp1289
a(I17
F0.034426229508196723
tp1290
a(I18
F0.012738853503184714
tp1291
a(I19
F0.046558704453441298
tp1292
a(I20
F0.033724340175953077
tp1293
a(I21
F0.031473533619456366
tp1294
a(I22
F0.015050167224080268
tp1295
a(I23
F0.023622047244094488
tp1296
a(I24
F0.016216216216216217
tp1297
a(I25
F0.018808777429467086
tp1298
a(I26
F0.014742014742014743
tp1299
a(I27
F0.01279317697228145
tp1300
a(I28
F0.012422360248447204
tp1301
a(I29
F0.013333333333333334
tp1302
a(I30
F0.017857142857142856
tp1303
a(I31
F0.033141210374639768
tp1304
a(I32
F0.026132404181184669
tp1305
aa(lp1306
(I49
F0.038167938931297711
tp1307
a(I51
F0.0077519379844961239
tp1308
a(I52
F0.0095238095238095247
tp1309
a(I53
F0.0056022408963585435
tp1310
a(I35
F0.005893909626719057
tp1311
a(I17
F0.032786885245901641
tp1312
a(I18
F0.019108280254777069
tp1313
a(I19
F0.026315789473684209
tp1314
a(I20
F0.023460410557184751
tp1315
a(I21
F0.022889842632331903
tp1316
a(I22
F0.020066889632107024
tp1317
a(I23
F0.018372703412073491
tp1318
a(I24
F0.016216216216216217
tp1319
a(I25
F0.028213166144200628
tp1320
a(I26
F0.054054054054054057
tp1321
a(I27
F0.021321961620469083
tp1322
a(I28
F0.022774327122153208
tp1323
a(I29
F0.024444444444444446
tp1324
a(I30
F0.053571428571428568
tp1325
a(I31
F0.030259365994236311
tp1326
a(I32
F0.041811846689895474
tp1327
aa(lp1328
(I49
F0.083969465648854963
tp1329
a(I50
F0.0079365079365079361
tp1330
a(I52
F0.12380952380952381
tp1331
a(I54
F0.13636363636363635
tp1332
a(I53
F0.025210084033613446
tp1333
a(I35
F0.0137524557956778
tp1334
a(I17
F0.047540983606557376
tp1335
a(I19
F0.068825910931174086
tp1336
a(I20
F0.04398826979472141
tp1337
a(I21
F0.032904148783977114
tp1338
a(I22
F0.011705685618729096
tp1339
a(I23
F0.013123359580052493
tp1340
a(I24
F0.0054054054054054057
tp1341
a(I25
F0.017241379310344827
tp1342
a(I26
F0.0073710073710073713
tp1343
a(I30
F0.0076530612244897957
tp1344
a(I31
F0.044668587896253602
tp1345
a(I32
F0.033101045296167246
tp1346
aa(lp1347
(I49
F0.049618320610687022
tp1348
a(I50
F0.003968253968253968
tp1349
a(I51
F0.050387596899224806
tp1350
a(I53
F0.0056022408963585435
tp1351
a(I35
F0.005893909626719057
tp1352
a(I17
F0.016393442622950821
tp1353
a(I18
F0.004246284501061571
tp1354
a(I19
F0.022267206477732792
tp1355
a(I20
F0.011730205278592375
tp1356
a(I21
F0.014306151645207439
tp1357
a(I22
F0.005016722408026756
tp1358
a(I25
F0.0078369905956112845
tp1359
a(I27
F0.0042643923240938165
tp1360
a(I28
F0.004140786749482402
tp1361
a(I29
F0.0044444444444444444
tp1362
a(I30
F0.0025510204081632651
tp1363
a(I31
F0.012968299711815562
tp1364
a(I32
F0.013937282229965157
tp1365
aa(lp1366
(I49
F0.041984732824427481
tp1367
a(I50
F0.0079365079365079361
tp1368
a(I51
F0.034883720930232558
tp1369
a(I52
F0.019047619047619049
tp1370
a(I2
F0.062857142857142861
tp1371
a(I3
F0.049488054607508533
tp1372
a(I4
F0.034836065573770489
tp1373
a(I6
F0.03678929765886288
tp1374
a(I7
F0.016853932584269662
tp1375
a(I8
F0.034591194968553458
tp1376
a(I40
F0.01935483870967742
tp1377
a(I41
F0.042105263157894736
tp1378
a(I9
F0.024498886414253896
tp1379
a(I10
F0.013550135501355014
tp1380
a(I11
F0.037459283387622153
tp1381
a(I12
F0.041860465116279069
tp1382
a(I42
F0.042042042042042045
tp1383
a(I43
F0.033333333333333333
tp1384
a(I44
F0.032692307692307694
tp1385
a(I48
F0.063829787234042548
tp1386
a(I35
F0.011787819253438114
tp1387
a(I17
F0.0081967213114754103
tp1388
a(I19
F0.0080971659919028341
tp1389
a(I20
F0.017595307917888565
tp1390
a(I21
F0.0071530758226037196
tp1391
a(I22
F0.005016722408026756
tp1392
a(I23
F0.007874015748031496
tp1393
a(I25
F0.0094043887147335428
tp1394
a(I31
F0.0086455331412103754
tp1395
a(I32
F0.0087108013937282226
tp1396
aa(lp1397
(I51
F0.034883720930232558
tp1398
a(I17
F0.014754098360655738
tp1399
a(I19
F0.018218623481781375
tp1400
a(I20
F0.0087976539589442824
tp1401
a(I21
F0.0071530758226037196
tp1402
a(I22
F0.0033444816053511705
tp1403
a(I25
F0.006269592476489028
tp1404
a(I26
F0.0073710073710073713
tp1405
a(I30
F0.0076530612244897957
tp1406
a(I31
F0.012968299711815562
tp1407
a(I32
F0.012195121951219513
tp1408
aa.