cigraph
Graph
p1
(I55
(lp2
(I0
I1
tp3
a(I0
I2
tp4
a(I0
I3
tp5
a(I0
I4
tp6
a(I0
I5
tp7
a(I0
I6
tp8
a(I0
I7
tp9
a(I0
I8
tp10
a(I0
I9
tp11
a(I0
I10
tp12
a(I0
I11
tp13
a(I0
I12
tp14
a(I13
I14
tp15
a(I13
I15
tp16
a(I13
I16
tp17
a(I13
I17
tp18
a(I13
I18
tp19
a(I13
I19
tp20
a(I13
I20
tp21
a(I13
I21
tp22
a(I13
I22
tp23
a(I13
I23
tp24
a(I13
I24
tp25
a(I13
I25
tp26
a(I13
I26
tp27
a(I13
I27
tp28
a(I13
I28
tp29
a(I13
I29
tp30
a(I13
I30
tp31
a(I13
I31
tp32
a(I13
I32
tp33
a(I14
I13
tp34
a(I14
I15
tp35
a(I14
I16
tp36
a(I14
I33
tp37
a(I14
I34
tp38
a(I14
I35
tp39
a(I14
I17
tp40
a(I14
I18
tp41
a(I14
I19
tp42
a(I14
I20
tp43
a(I14
I21
tp44
a(I14
I22
tp45
a(I14
I23
tp46
a(I14
I24
tp47
a(I14
I25
tp48
a(I14
I26
tp49
a(I14
I27
tp50
a(I14
I28
tp51
a(I14
I29
tp52
a(I14
I30
tp53
a(I14
I31
tp54
a(I14
I32
tp55
a(I1
I0
tp56
a(I1
I16
tp57
a(I1
I36
tp58
a(I1
I37
tp59
a(I1
I38
tp60
a(I1
I39
tp61
a(I1
I2
tp62
a(I1
I3
tp63
a(I1
I4
tp64
a(I1
I5
tp65
a(I1
I6
tp66
a(I1
I7
tp67
a(I1
I8
tp68
a(I1
I40
tp69
a(I1
I41
tp70
a(I1
I9
tp71
a(I1
I10
tp72
a(I1
I11
tp73
a(I1
I12
tp74
a(I1
I42
tp75
a(I1
I43
tp76
a(I1
I44
tp77
a(I1
I35
tp78
a(I1
I21
tp79
a(I15
I13
tp80
a(I15
I14
tp81
a(I15
I18
tp82
a(I15
I20
tp83
a(I15
I21
tp84
a(I15
I22
tp85
a(I15
I23
tp86
a(I15
I24
tp87
a(I15
I25
tp88
a(I15
I26
tp89
a(I15
I27
tp90
a(I15
I28
tp91
a(I15
I29
tp92
a(I15
I30
tp93
a(I15
I31
tp94
a(I15
I32
tp95
a(I45
I2
tp96
a(I45
I5
tp97
a(I45
I46
tp98
a(I45
I8
tp99
a(I45
I10
tp100
a(I45
I12
tp101
a(I45
I42
tp102
a(I45
I47
tp103
a(I45
I48
tp104
a(I45
I35
tp105
a(I45
I21
tp106
a(I16
I13
tp107
a(I16
I14
tp108
a(I16
I1
tp109
a(I16
I36
tp110
a(I16
I33
tp111
a(I16
I34
tp112
a(I16
I3
tp113
a(I16
I4
tp114
a(I16
I5
tp115
a(I16
I6
tp116
a(I16
I7
tp117
a(I16
I8
tp118
a(I16
I40
tp119
a(I16
I41
tp120
a(I16
I9
tp121
a(I16
I10
tp122
a(I16
I11
tp123
a(I16
I12
tp124
a(I16
I42
tp125
a(I16
I43
tp126
a(I16
I44
tp127
a(I16
I35
tp128
a(I16
I17
tp129
a(I16
I18
tp130
a(I16
I19
tp131
a(I16
I20
tp132
a(I16
I21
tp133
a(I16
I22
tp134
a(I16
I23
tp135
a(I16
I24
tp136
a(I16
I25
tp137
a(I16
I26
tp138
a(I16
I27
tp139
a(I16
I28
tp140
a(I16
I29
tp141
a(I16
I31
tp142
a(I16
I32
tp143
a(I36
I1
tp144
a(I36
I16
tp145
a(I36
I37
tp146
a(I36
I2
tp147
a(I36
I3
tp148
a(I36
I4
tp149
a(I36
I5
tp150
a(I36
I46
tp151
a(I36
I6
tp152
a(I36
I7
tp153
a(I36
I8
tp154
a(I36
I40
tp155
a(I36
I41
tp156
a(I36
I9
tp157
a(I36
I10
tp158
a(I36
I11
tp159
a(I36
I12
tp160
a(I36
I42
tp161
a(I36
I43
tp162
a(I36
I44
tp163
a(I36
I47
tp164
a(I36
I48
tp165
a(I36
I35
tp166
a(I37
I1
tp167
a(I37
I36
tp168
a(I37
I38
tp169
a(I37
I2
tp170
a(I37
I3
tp171
a(I37
I4
tp172
a(I37
I5
tp173
a(I37
I46
tp174
a(I37
I8
tp175
a(I37
I40
tp176
a(I37
I10
tp177
a(I37
I11
tp178
a(I37
I12
tp179
a(I37
I42
tp180
a(I37
I44
tp181
a(I37
I48
tp182
a(I37
I35
tp183
a(I38
I1
tp184
a(I38
I37
tp185
a(I38
I39
tp186
a(I38
I2
tp187
a(I38
I3
tp188
a(I38
I4
tp189
a(I38
I5
tp190
a(I38
I46
tp191
a(I38
I6
tp192
a(I38
I7
tp193
a(I38
I8
tp194
a(I38
I40
tp195
a(I38
I41
tp196
a(I38
I9
tp197
a(I38
I10
tp198
a(I38
I11
tp199
a(I38
I12
tp200
a(I38
I42
tp201
a(I38
I43
tp202
a(I38
I44
tp203
a(I38
I48
tp204
a(I38
I35
tp205
a(I38
I24
tp206
a(I38
I25
tp207
a(I39
I1
tp208
a(I39
I38
tp209
a(I39
I2
tp210
a(I39
I3
tp211
a(I39
I4
tp212
a(I39
I5
tp213
a(I39
I46
tp214
a(I39
I42
tp215
a(I39
I48
tp216
a(I39
I35
tp217
a(I33
I14
tp218
a(I33
I16
tp219
a(I33
I34
tp220
a(I33
I35
tp221
a(I33
I17
tp222
a(I33
I18
tp223
a(I33
I19
tp224
a(I33
I20
tp225
a(I33
I21
tp226
a(I33
I22
tp227
a(I33
I23
tp228
a(I33
I24
tp229
a(I33
I25
tp230
a(I33
I27
tp231
a(I33
I28
tp232
a(I33
I29
tp233
a(I33
I31
tp234
a(I33
I32
tp235
a(I34
I14
tp236
a(I34
I16
tp237
a(I34
I33
tp238
a(I34
I35
tp239
a(I34
I17
tp240
a(I34
I19
tp241
a(I34
I20
tp242
a(I34
I21
tp243
a(I34
I22
tp244
a(I34
I23
tp245
a(I34
I24
tp246
a(I34
I25
tp247
a(I34
I26
tp248
a(I34
I30
tp249
a(I34
I31
tp250
a(I34
I32
tp251
a(I49
I50
tp252
a(I49
I51
tp253
a(I49
I52
tp254
a(I49
I53
tp255
a(I49
I35
tp256
a(I49
I17
tp257
a(I49
I18
tp258
a(I49
I19
tp259
a(I49
I20
tp260
a(I49
I21
tp261
a(I49
I22
tp262
a(I49
I23
tp263
a(I49
I24
tp264
a(I49
I25
tp265
a(I49
I26
tp266
a(I49
I27
tp267
a(I49
I28
tp268
a(I49
I29
tp269
a(I49
I30
tp270
a(I49
I31
tp271
a(I49
I32
tp272
a(I50
I49
tp273
a(I50
I51
tp274
a(I50
I52
tp275
a(I50
I53
tp276
a(I50
I35
tp277
a(I50
I17
tp278
a(I50
I18
tp279
a(I50
I19
tp280
a(I50
I20
tp281
a(I50
I21
tp282
a(I50
I22
tp283
a(I50
I23
tp284
a(I50
I24
tp285
a(I50
I25
tp286
a(I50
I26
tp287
a(I50
I27
tp288
a(I50
I28
tp289
a(I50
I29
tp290
a(I50
I30
tp291
a(I50
I31
tp292
a(I50
I32
tp293
a(I51
I49
tp294
a(I51
I50
tp295
a(I51
I52
tp296
a(I51
I54
tp297
a(I51
I53
tp298
a(I51
I35
tp299
a(I51
I17
tp300
a(I51
I19
tp301
a(I51
I20
tp302
a(I51
I21
tp303
a(I51
I22
tp304
a(I51
I23
tp305
a(I51
I24
tp306
a(I51
I25
tp307
a(I51
I26
tp308
a(I51
I30
tp309
a(I51
I31
tp310
a(I51
I32
tp311
a(I52
I49
tp312
a(I52
I50
tp313
a(I52
I51
tp314
a(I52
I53
tp315
a(I52
I35
tp316
a(I52
I17
tp317
a(I52
I18
tp318
a(I52
I19
tp319
a(I52
I20
tp320
a(I52
I21
tp321
a(I52
I22
tp322
a(I52
I25
tp323
a(I52
I27
tp324
a(I52
I28
tp325
a(I52
I29
tp326
a(I52
I30
tp327
a(I52
I31
tp328
a(I52
I32
tp329
a(I54
I51
tp330
a(I54
I17
tp331
a(I54
I19
tp332
a(I54
I20
tp333
a(I54
I21
tp334
a(I54
I22
tp335
a(I54
I25
tp336
a(I54
I26
tp337
a(I54
I30
tp338
a(I54
I31
tp339
a(I54
I32
tp340
a(I2
I0
tp341
a(I2
I1
tp342
a(I2
I45
tp343
a(I2
I36
tp344
a(I2
I37
tp345
a(I2
I38
tp346
a(I2
I39
tp347
a(I2
I3
tp348
a(I2
I4
tp349
a(I2
I5
tp350
a(I2
I46
tp351
a(I2
I6
tp352
a(I2
I7
tp353
a(I2
I8
tp354
a(I2
I40
tp355
a(I2
I53
tp356
a(I2
I41
tp357
a(I2
I9
tp358
a(I2
I10
tp359
a(I2
I11
tp360
a(I2
I12
tp361
a(I2
I42
tp362
a(I2
I43
tp363
a(I2
I44
tp364
a(I2
I47
tp365
a(I2
I48
tp366
a(I2
I35
tp367
a(I2
I20
tp368
a(I2
I21
tp369
a(I2
I22
tp370
a(I2
I25
tp371
a(I2
I32
tp372
a(I3
I0
tp373
a(I3
I1
tp374
a(I3
I16
tp375
a(I3
I36
tp376
a(I3
I37
tp377
a(I3
I38
tp378
a(I3
I39
tp379
a(I3
I2
tp380
a(I3
I4
tp381
a(I3
I5
tp382
a(I3
I6
tp383
a(I3
I7
tp384
a(I3
I8
tp385
a(I3
I40
tp386
a(I3
I53
tp387
a(I3
I41
tp388
a(I3
I9
tp389
a(I3
I10
tp390
a(I3
I11
tp391
a(I3
I12
tp392
a(I3
I42
tp393
a(I3
I43
tp394
a(I3
I44
tp395
a(I3
I35
tp396
a(I3
I17
tp397
a(I3
I20
tp398
a(I3
I21
tp399
a(I3
I25
tp400
a(I3
I32
tp401
a(I4
I0
tp402
a(I4
I1
tp403
a(I4
I16
tp404
a(I4
I36
tp405
a(I4
I37
tp406
a(I4
I38
tp407
a(I4
I39
tp408
a(I4
I2
tp409
a(I4
I3
tp410
a(I4
I5
tp411
a(I4
I6
tp412
a(I4
I7
tp413
a(I4
I8
tp414
a(I4
I40
tp415
a(I4
I53
tp416
a(I4
I41
tp417
a(I4
I9
tp418
a(I4
I10
tp419
a(I4
I11
tp420
a(I4
I12
tp421
a(I4
I42
tp422
a(I4
I43
tp423
a(I4
I44
tp424
a(I4
I35
tp425
a(I4
I17
tp426
a(I4
I21
tp427
a(I4
I22
tp428
a(I4
I25
tp429
a(I5
I0
tp430
a(I5
I1
tp431
a(I5
I45
tp432
a(I5
I16
tp433
a(I5
I36
tp434
a(I5
I37
tp435
a(I5
I38
tp436
a(I5
I39
tp437
a(I5
I2
tp438
a(I5
I3
tp439
a(I5
I4
tp440
a(I5
I46
tp441
a(I5
I6
tp442
a(I5
I7
tp443
a(I5
I8
tp444
a(I5
I40
tp445
a(I5
I41
tp446
a(I5
I9
tp447
a(I5
I10
tp448
a(I5
I11
tp449
a(I5
I12
tp450
a(I5
I42
tp451
a(I5
I43
tp452
a(I5
I44
tp453
a(I5
I47
tp454
a(I5
I48
tp455
a(I5
I35
tp456
a(I5
I21
tp457
a(I46
I45
tp458
a(I46
I36
tp459
a(I46
I37
tp460
a(I46
I38
tp461
a(I46
I39
tp462
a(I46
I2
tp463
a(I46
I5
tp464
a(I46
I42
tp465
a(I46
I47
tp466
a(I46
I48
tp467
a(I46
I35
tp468
a(I46
I21
tp469
a(I6
I0
tp470
a(I6
I1
tp471
a(I6
I16
tp472
a(I6
I36
tp473
a(I6
I38
tp474
a(I6
I2
tp475
a(I6
I3
tp476
a(I6
I4
tp477
a(I6
I5
tp478
a(I6
I7
tp479
a(I6
I8
tp480
a(I6
I40
tp481
a(I6
I53
tp482
a(I6
I41
tp483
a(I6
I9
tp484
a(I6
I10
tp485
a(I6
I11
tp486
a(I6
I12
tp487
a(I6
I42
tp488
a(I6
I43
tp489
a(I6
I44
tp490
a(I6
I35
tp491
a(I6
I20
tp492
a(I6
I21
tp493
a(I7
I0
tp494
a(I7
I1
tp495
a(I7
I16
tp496
a(I7
I36
tp497
a(I7
I38
tp498
a(I7
I2
tp499
a(I7
I3
tp500
a(I7
I4
tp501
a(I7
I5
tp502
a(I7
I6
tp503
a(I7
I8
tp504
a(I7
I40
tp505
a(I7
I53
tp506
a(I7
I41
tp507
a(I7
I9
tp508
a(I7
I10
tp509
a(I7
I11
tp510
a(I7
I12
tp511
a(I7
I42
tp512
a(I7
I43
tp513
a(I7
I44
tp514
a(I7
I35
tp515
a(I7
I21
tp516
a(I7
I22
tp517
a(I8
I0
tp518
a(I8
I1
tp519
a(I8
I45
tp520
a(I8
I16
tp521
a(I8
I36
tp522
a(I8
I37
tp523
a(I8
I38
tp524
a(I8
I2
tp525
a(I8
I3
tp526
a(I8
I4
tp527
a(I8
I5
tp528
a(I8
I6
tp529
a(I8
I7
tp530
a(I8
I40
tp531
a(I8
I53
tp532
a(I8
I41
tp533
a(I8
I9
tp534
a(I8
I10
tp535
a(I8
I11
tp536
a(I8
I12
tp537
a(I8
I42
tp538
a(I8
I43
tp539
a(I8
I44
tp540
a(I8
I35
tp541
a(I8
I17
tp542
a(I8
I20
tp543
a(I8
I21
tp544
a(I8
I25
tp545
a(I8
I32
tp546
a(I40
I1
tp547
a(I40
I16
tp548
a(I40
I36
tp549
a(I40
I37
tp550
a(I40
I38
tp551
a(I40
I2
tp552
a(I40
I3
tp553
a(I40
I4
tp554
a(I40
I5
tp555
a(I40
I6
tp556
a(I40
I7
tp557
a(I40
I8
tp558
a(I40
I53
tp559
a(I40
I41
tp560
a(I40
I9
tp561
a(I40
I10
tp562
a(I40
I11
tp563
a(I40
I12
tp564
a(I40
I42
tp565
a(I40
I43
tp566
a(I40
I44
tp567
a(I40
I35
tp568
a(I40
I21
tp569
a(I40
I22
tp570
a(I53
I49
tp571
a(I53
I50
tp572
a(I53
I51
tp573
a(I53
I52
tp574
a(I53
I2
tp575
a(I53
I3
tp576
a(I53
I4
tp577
a(I53
I6
tp578
a(I53
I7
tp579
a(I53
I8
tp580
a(I53
I40
tp581
a(I53
I41
tp582
a(I53
I9
tp583
a(I53
I10
tp584
a(I53
I11
tp585
a(I53
I12
tp586
a(I53
I42
tp587
a(I53
I43
tp588
a(I53
I44
tp589
a(I53
I48
tp590
a(I53
I35
tp591
a(I53
I17
tp592
a(I53
I19
tp593
a(I53
I20
tp594
a(I53
I21
tp595
a(I53
I22
tp596
a(I53
I23
tp597
a(I53
I25
tp598
a(I53
I31
tp599
a(I53
I32
tp600
a(I41
I1
tp601
a(I41
I16
tp602
a(I41
I36
tp603
a(I41
I38
tp604
a(I41
I2
tp605
a(I41
I3
tp606
a(I41
I4
tp607
a(I41
I5
tp608
a(I41
I6
tp609
a(I41
I7
tp610
a(I41
I8
tp611
a(I41
I40
tp612
a(I41
I53
tp613
a(I41
I9
tp614
a(I41
I10
tp615
a(I41
I11
tp616
a(I41
I12
tp617
a(I41
I42
tp618
a(I41
I43
tp619
a(I41
I44
tp620
a(I41
I35
tp621
a(I41
I20
tp622
a(I41
I21
tp623
a(I9
I0
tp624
a(I9
I1
tp625
a(I9
I16
tp626
a(I9
I36
tp627
a(I9
I38
tp628
a(I9
I2
tp629
a(I9
I3
tp630
a(I9
I4
tp631
a(I9
I5
tp632
a(I9
I6
tp633
a(I9
I7
tp634
a(I9
I8
tp635
a(I9
I40
tp636
a(I9
I53
tp637
a(I9
I41
tp638
a(I9
I10
tp639
a(I9
I11
tp640
a(I9
I12
tp641
a(I9
I42
tp642
a(I9
I43
tp643
a(I9
I44
tp644
a(I9
I35
tp645
a(I9
I20
tp646
a(I9
I21
tp647
a(I9
I22
tp648
a(I10
I0
tp649
a(I10
I1
tp650
a(I10
I45
tp651
a(I10
I16
tp652
a(I10
I36
tp653
a(I10
I37
tp654
a(I10
I38
tp655
a(I10
I2
tp656
a(I10
I3
tp657
a(I10
I4
tp658
a(I10
I5
tp659
a(I10
I6
tp660
a(I10
I7
tp661
a(I10
I8
tp662
a(I10
I40
tp663
a(I10
I53
tp664
a(I10
I41
tp665
a(I10
I9
tp666
a(I10
I11
tp667
a(I10
I12
tp668
a(I10
I42
tp669
a(I10
I43
tp670
a(I10
I44
tp671
a(I10
I35
tp672
a(I10
I21
tp673
a(I10
I22
tp674
a(I11
I0
tp675
a(I11
I1
tp676
a(I11
I16
tp677
a(I11
I36
tp678
a(I11
I37
tp679
a(I11
I38
tp680
a(I11
I2
tp681
a(I11
I3
tp682
a(I11
I4
tp683
a(I11
I5
tp684
a(I11
I6
tp685
a(I11
I7
tp686
a(I11
I8
tp687
a(I11
I40
tp688
a(I11
I53
tp689
a(I11
I41
tp690
a(I11
I9
tp691
a(I11
I10
tp692
a(I11
I12
tp693
a(I11
I42
tp694
a(I11
I43
tp695
a(I11
I44
tp696
a(I11
I35
tp697
a(I11
I20
tp698
a(I11
I21
tp699
a(I11
I22
tp700
a(I11
I25
tp701
a(I12
I0
tp702
a(I12
I1
tp703
a(I12
I45
tp704
a(I12
I16
tp705
a(I12
I36
tp706
a(I12
I37
tp707
a(I12
I38
tp708
a(I12
I2
tp709
a(I12
I3
tp710
a(I12
I4
tp711
a(I12
I5
tp712
a(I12
I6
tp713
a(I12
I7
tp714
a(I12
I8
tp715
a(I12
I40
tp716
a(I12
I53
tp717
a(I12
I41
tp718
a(I12
I9
tp719
a(I12
I10
tp720
a(I12
I11
tp721
a(I12
I42
tp722
a(I12
I43
tp723
a(I12
I44
tp724
a(I12
I35
tp725
a(I12
I20
tp726
a(I12
I21
tp727
a(I12
I22
tp728
a(I12
I25
tp729
a(I42
I1
tp730
a(I42
I45
tp731
a(I42
I16
tp732
a(I42
I36
tp733
a(I42
I37
tp734
a(I42
I38
tp735
a(I42
I39
tp736
a(I42
I2
tp737
a(I42
I3
tp738
a(I42
I4
tp739
a(I42
I5
tp740
a(I42
I46
tp741
a(I42
I6
tp742
a(I42
I7
tp743
a(I42
I8
tp744
a(I42
I40
tp745
a(I42
I53
tp746
a(I42
I41
tp747
a(I42
I9
tp748
a(I42
I10
tp749
a(I42
I11
tp750
a(I42
I12
tp751
a(I42
I43
tp752
a(I42
I44
tp753
a(I42
I47
tp754
a(I42
I48
tp755
a(I42
I35
tp756
a(I42
I20
tp757
a(I42
I21
tp758
a(I42
I22
tp759
a(I42
I25
tp760
a(I43
I1
tp761
a(I43
I16
tp762
a(I43
I36
tp763
a(I43
I38
tp764
a(I43
I2
tp765
a(I43
I3
tp766
a(I43
I4
tp767
a(I43
I5
tp768
a(I43
I6
tp769
a(I43
I7
tp770
a(I43
I8
tp771
a(I43
I40
tp772
a(I43
I53
tp773
a(I43
I41
tp774
a(I43
I9
tp775
a(I43
I10
tp776
a(I43
I11
tp777
a(I43
I12
tp778
a(I43
I42
tp779
a(I43
I44
tp780
a(I43
I35
tp781
a(I43
I20
tp782
a(I43
I21
tp783
a(I44
I1
tp784
a(I44
I16
tp785
a(I44
I36
tp786
a(I44
I37
tp787
a(I44
I38
tp788
a(I44
I2
tp789
a(I44
I3
tp790
a(I44
I4
tp791
a(I44
I5
tp792
a(I44
I6
tp793
a(I44
I7
tp794
a(I44
I8
tp795
a(I44
I40
tp796
a(I44
I53
tp797
a(I44
I41
tp798
a(I44
I9
tp799
a(I44
I10
tp800
a(I44
I11
tp801
a(I44
I12
tp802
a(I44
I42
tp803
a(I44
I43
tp804
a(I44
I35
tp805
a(I44
I20
tp806
a(I44
I21
tp807
a(I47
I45
tp808
a(I47
I36
tp809
a(I47
I2
tp810
a(I47
I5
tp811
a(I47
I46
tp812
a(I47
I42
tp813
a(I47
I48
tp814
a(I47
I35
tp815
a(I47
I21
tp816
a(I48
I45
tp817
a(I48
I36
tp818
a(I48
I37
tp819
a(I48
I38
tp820
a(I48
I39
tp821
a(I48
I2
tp822
a(I48
I5
tp823
a(I48
I46
tp824
a(I48
I53
tp825
a(I48
I42
tp826
a(I48
I47
tp827
a(I48
I35
tp828
a(I48
I21
tp829
a(I35
I14
tp830
a(I35
I1
tp831
a(I35
I45
tp832
a(I35
I16
tp833
a(I35
I36
tp834
a(I35
I37
tp835
a(I35
I38
tp836
a(I35
I39
tp837
a(I35
I33
tp838
a(I35
I34
tp839
a(I35
I49
tp840
a(I35
I50
tp841
a(I35
I51
tp842
a(I35
I52
tp843
a(I35
I2
tp844
a(I35
I3
tp845
a(I35
I4
tp846
a(I35
I5
tp847
a(I35
I46
tp848
a(I35
I6
tp849
a(I35
I7
tp850
a(I35
I8
tp851
a(I35
I40
tp852
a(I35
I53
tp853
a(I35
I41
tp854
a(I35
I9
tp855
a(I35
I10
tp856
a(I35
I11
tp857
a(I35
I12
tp858
a(I35
I42
tp859
a(I35
I43
tp860
a(I35
I44
tp861
a(I35
I47
tp862
a(I35
I48
tp863
a(I35
I17
tp864
a(I35
I18
tp865
a(I35
I19
tp866
a(I35
I20
tp867
a(I35
I21
tp868
a(I35
I22
tp869
a(I35
I23
tp870
a(I35
I24
tp871
a(I35
I25
tp872
a(I35
I26
tp873
a(I35
I27
tp874
a(I35
I28
tp875
a(I35
I29
tp876
a(I35
I30
tp877
a(I35
I31
tp878
a(I35
I32
tp879
a(I17
I13
tp880
a(I17
I14
tp881
a(I17
I16
tp882
a(I17
I33
tp883
a(I17
I34
tp884
a(I17
I49
tp885
a(I17
I50
tp886
a(I17
I51
tp887
a(I17
I52
tp888
a(I17
I54
tp889
a(I17
I3
tp890
a(I17
I4
tp891
a(I17
I8
tp892
a(I17
I53
tp893
a(I17
I35
tp894
a(I17
I18
tp895
a(I17
I19
tp896
a(I17
I20
tp897
a(I17
I21
tp898
a(I17
I22
tp899
a(I17
I23
tp900
a(I17
I24
tp901
a(I17
I25
tp902
a(I17
I26
tp903
a(I17
I27
tp904
a(I17
I28
tp905
a(I17
I29
tp906
a(I17
I30
tp907
a(I17
I31
tp908
a(I17
I32
tp909
a(I18
I13
tp910
a(I18
I14
tp911
a(I18
I15
tp912
a(I18
I16
tp913
a(I18
I33
tp914
a(I18
I49
tp915
a(I18
I50
tp916
a(I18
I52
tp917
a(I18
I35
tp918
a(I18
I17
tp919
a(I18
I19
tp920
a(I18
I20
tp921
a(I18
I21
tp922
a(I18
I22
tp923
a(I18
I23
tp924
a(I18
I24
tp925
a(I18
I25
tp926
a(I18
I26
tp927
a(I18
I27
tp928
a(I18
I28
tp929
a(I18
I29
tp930
a(I18
I30
tp931
a(I18
I31
tp932
a(I18
I32
tp933
a(I19
I13
tp934
a(I19
I14
tp935
a(I19
I16
tp936
a(I19
I33
tp937
a(I19
I34
tp938
a(I19
I49
tp939
a(I19
I50
tp940
a(I19
I51
tp941
a(I19
I52
tp942
a(I19
I54
tp943
a(I19
I53
tp944
a(I19
I35
tp945
a(I19
I17
tp946
a(I19
I18
tp947
a(I19
I20
tp948
a(I19
I21
tp949
a(I19
I22
tp950
a(I19
I23
tp951
a(I19
I24
tp952
a(I19
I25
tp953
a(I19
I26
tp954
a(I19
I27
tp955
a(I19
I28
tp956
a(I19
I29
tp957
a(I19
I30
tp958
a(I19
I31
tp959
a(I19
I32
tp960
a(I20
I13
tp961
a(I20
I14
tp962
a(I20
I15
tp963
a(I20
I16
tp964
a(I20
I33
tp965
a(I20
I34
tp966
a(I20
I49
tp967
a(I20
I50
tp968
a(I20
I51
tp969
a(I20
I52
tp970
a(I20
I54
tp971
a(I20
I2
tp972
a(I20
I3
tp973
a(I20
I6
tp974
a(I20
I8
tp975
a(I20
I53
tp976
a(I20
I41
tp977
a(I20
I9
tp978
a(I20
I11
tp979
a(I20
I12
tp980
a(I20
I42
tp981
a(I20
I43
tp982
a(I20
I44
tp983
a(I20
I35
tp984
a(I20
I17
tp985
a(I20
I18
tp986
a(I20
I19
tp987
a(I20
I21
tp988
a(I20
I22
tp989
a(I20
I23
tp990
a(I20
I24
tp991
a(I20
I25
tp992
a(I20
I26
tp993
a(I20
I27
tp994
a(I20
I28
tp995
a(I20
I29
tp996
a(I20
I30
tp997
a(I20
I31
tp998
a(I20
I32
tp999
a(I21
I13
tp1000
a(I21
I14
tp1001
a(I21
I1
tp1002
a(I21
I15
tp1003
a(I21
I45
tp1004
a(I21
I16
tp1005
a(I21
I33
tp1006
a(I21
I34
tp1007
a(I21
I49
tp1008
a(I21
I50
tp1009
a(I21
I51
tp1010
a(I21
I52
tp1011
a(I21
I54
tp1012
a(I21
I2
tp1013
a(I21
I3
tp1014
a(I21
I4
tp1015
a(I21
I5
tp1016
a(I21
I46
tp1017
a(I21
I6
tp1018
a(I21
I7
tp1019
a(I21
I8
tp1020
a(I21
I40
tp1021
a(I21
I53
tp1022
a(I21
I41
tp1023
a(I21
I9
tp1024
a(I21
I10
tp1025
a(I21
I11
tp1026
a(I21
I12
tp1027
a(I21
I42
tp1028
a(I21
I43
tp1029
a(I21
I44
tp1030
a(I21
I47
tp1031
a(I21
I48
tp1032
a(I21
I35
tp1033
a(I21
I17
tp1034
a(I21
I18
tp1035
a(I21
I19
tp1036
a(I21
I20
tp1037
a(I21
I22
tp1038
a(I21
I23
tp1039
a(I21
I24
tp1040
a(I21
I25
tp1041
a(I21
I26
tp1042
a(I21
I27
tp1043
a(I21
I28
tp1044
a(I21
I29
tp1045
a(I21
I30
tp1046
a(I21
I31
tp1047
a(I21
I32
tp1048
a(I22
I13
tp1049
a(I22
I14
tp1050
a(I22
I15
tp1051
a(I22
I16
tp1052
a(I22
I33
tp1053
a(I22
I34
tp1054
a(I22
I49
tp1055
a(I22
I50
tp1056
a(I22
I51
tp1057
a(I22
I52
tp1058
a(I22
I54
tp1059
a(I22
I2
tp1060
a(I22
I4
tp1061
a(I22
I7
tp1062
a(I22
I40
tp1063
a(I22
I53
tp1064
a(I22
I9
tp1065
a(I22
I10
tp1066
a(I22
I11
tp1067
a(I22
I12
tp1068
a(I22
I42
tp1069
a(I22
I35
tp1070
a(I22
I17
tp1071
a(I22
I18
tp1072
a(I22
I19
tp1073
a(I22
I20
tp1074
a(I22
I21
tp1075
a(I22
I23
tp1076
a(I22
I24
tp1077
a(I22
I25
tp1078
a(I22
I26
tp1079
a(I22
I27
tp1080
a(I22
I28
tp1081
a(I22
I29
tp1082
a(I22
I30
tp1083
a(I22
I31
tp1084
a(I22
I32
tp1085
a(I23
I13
tp1086
a(I23
I14
tp1087
a(I23
I15
tp1088
a(I23
I16
tp1089
a(I23
I33
tp1090
a(I23
I34
tp1091
a(I23
I49
tp1092
a(I23
I50
tp1093
a(I23
I51
tp1094
a(I23
I53
tp1095
a(I23
I35
tp1096
a(I23
I17
tp1097
a(I23
I18
tp1098
a(I23
I19
tp1099
a(I23
I20
tp1100
a(I23
I21
tp1101
a(I23
I22
tp1102
a(I23
I24
tp1103
a(I23
I25
tp1104
a(I23
I26
tp1105
a(I23
I27
tp1106
a(I23
I28
tp1107
a(I23
I29
tp1108
a(I23
I30
tp1109
a(I23
I31
tp1110
a(I23
I32
tp1111
a(I24
I13
tp1112
a(I24
I14
tp1113
a(I24
I15
tp1114
a(I24
I16
tp1115
a(I24
I38
tp1116
a(I24
I33
tp1117
a(I24
I34
tp1118
a(I24
I49
tp1119
a(I24
I50
tp1120
a(I24
I51
tp1121
a(I24
I35
tp1122
a(I24
I17
tp1123
a(I24
I18
tp1124
a(I24
I19
tp1125
a(I24
I20
tp1126
a(I24
I21
tp1127
a(I24
I22
tp1128
a(I24
I23
tp1129
a(I24
I25
tp1130
a(I24
I26
tp1131
a(I24
I27
tp1132
a(I24
I28
tp1133
a(I24
I29
tp1134
a(I24
I30
tp1135
a(I24
I31
tp1136
a(I24
I32
tp1137
a(I25
I13
tp1138
a(I25
I14
tp1139
a(I25
I15
tp1140
a(I25
I16
tp1141
a(I25
I38
tp1142
a(I25
I33
tp1143
a(I25
I34
tp1144
a(I25
I49
tp1145
a(I25
I50
tp1146
a(I25
I51
tp1147
a(I25
I52
tp1148
a(I25
I54
tp1149
a(I25
I2
tp1150
a(I25
I3
tp1151
a(I25
I4
tp1152
a(I25
I8
tp1153
a(I25
I53
tp1154
a(I25
I11
tp1155
a(I25
I12
tp1156
a(I25
I42
tp1157
a(I25
I35
tp1158
a(I25
I17
tp1159
a(I25
I18
tp1160
a(I25
I19
tp1161
a(I25
I20
tp1162
a(I25
I21
tp1163
a(I25
I22
tp1164
a(I25
I23
tp1165
a(I25
I24
tp1166
a(I25
I26
tp1167
a(I25
I27
tp1168
a(I25
I28
tp1169
a(I25
I29
tp1170
a(I25
I30
tp1171
a(I25
I31
tp1172
a(I25
I32
tp1173
a(I26
I13
tp1174
a(I26
I14
tp1175
a(I26
I15
tp1176
a(I26
I16
tp1177
a(I26
I34
tp1178
a(I26
I49
tp1179
a(I26
I50
tp1180
a(I26
I51
tp1181
a(I26
I54
tp1182
a(I26
I35
tp1183
a(I26
I17
tp1184
a(I26
I18
tp1185
a(I26
I19
tp1186
a(I26
I20
tp1187
a(I26
I21
tp1188
a(I26
I22
tp1189
a(I26
I23
tp1190
a(I26
I24
tp1191
a(I26
I25
tp1192
a(I26
I27
tp1193
a(I26
I28
tp1194
a(I26
I29
tp1195
a(I26
I30
tp1196
a(I26
I31
tp1197
a(I26
I32
tp1198
a(I27
I13
tp1199
a(I27
I14
tp1200
a(I27
I15
tp1201
a(I27
I16
tp1202
a(I27
I33
tp1203
a(I27
I49
tp1204
a(I27
I50
tp1205
a(I27
I52
tp1206
a(I27
I35
tp1207
a(I27
I17
tp1208
a(I27
I18
tp1209
a(I27
I19
tp1210
a(I27
I20
tp1211
a(I27
I21
tp1212
a(I27
I22
tp1213
a(I27
I23
tp1214
a(I27
I24
tp1215
a(I27
I25
tp1216
a(I27
I26
tp1217
a(I27
I28
tp1218
a(I27
I29
tp1219
a(I27
I30
tp1220
a(I27
I31
tp1221
a(I27
I32
tp1222
a(I28
I13
tp1223
a(I28
I14
tp1224
a(I28
I15
tp1225
a(I28
I16
tp1226
a(I28
I33
tp1227
a(I28
I49
tp1228
a(I28
I50
tp1229
a(I28
I52
tp1230
a(I28
I35
tp1231
a(I28
I17
tp1232
a(I28
I18
tp1233
a(I28
I19
tp1234
a(I28
I20
tp1235
a(I28
I21
tp1236
a(I28
I22
tp1237
a(I28
I23
tp1238
a(I28
I24
tp1239
a(I28
I25
tp1240
a(I28
I26
tp1241
a(I28
I27
tp1242
a(I28
I29
tp1243
a(I28
I30
tp1244
a(I28
I31
tp1245
a(I28
I32
tp1246
a(I29
I13
tp1247
a(I29
I14
tp1248
a(I29
I15
tp1249
a(I29
I16
tp1250
a(I29
I33
tp1251
a(I29
I49
tp1252
a(I29
I50
tp1253
a(I29
I52
tp1254
a(I29
I35
tp1255
a(I29
I17
tp1256
a(I29
I18
tp1257
a(I29
I19
tp1258
a(I29
I20
tp1259
a(I29
I21
tp1260
a(I29
I22
tp1261
a(I29
I23
tp1262
a(I29
I24
tp1263
a(I29
I25
tp1264
a(I29
I26
tp1265
a(I29
I27
tp1266
a(I29
I28
tp1267
a(I29
I30
tp1268
a(I29
I31
tp1269
a(I29
I32
tp1270
a(I30
I13
tp1271
a(I30
I14
tp1272
a(I30
I15
tp1273
a(I30
I34
tp1274
a(I30
I49
tp1275
a(I30
I50
tp1276
a(I30
I51
tp1277
a(I30
I52
tp1278
a(I30
I54
tp1279
a(I30
I35
tp1280
a(I30
I17
tp1281
a(I30
I18
tp1282
a(I30
I19
tp1283
a(I30
I20
tp1284
a(I30
I21
tp1285
a(I30
I22
tp1286
a(I30
I23
tp1287
a(I30
I24
tp1288
a(I30
I25
tp1289
a(I30
I26
tp1290
a(I30
I27
tp1291
a(I30
I28
tp1292
a(I30
I29
tp1293
a(I30
I31
tp1294
a(I30
I32
tp1295
a(I31
I13
tp1296
a(I31
I14
tp1297
a(I31
I15
tp1298
a(I31
I16
tp1299
a(I31
I33
tp1300
a(I31
I34
tp1301
a(I31
I49
tp1302
a(I31
I50
tp1303
a(I31
I51
tp1304
a(I31
I52
tp1305
a(I31
I54
tp1306
a(I31
I53
tp1307
a(I31
I35
tp1308
a(I31
I17
tp1309
a(I31
I18
tp1310
a(I31
I19
tp1311
a(I31
I20
tp1312
a(I31
I21
tp1313
a(I31
I22
tp1314
a(I31
I23
tp1315
a(I31
I24
tp1316
a(I31
I25
tp1317
a(I31
I26
tp1318
a(I31
I27
tp1319
a(I31
I28
tp1320
a(I31
I29
tp1321
a(I31
I30
tp1322
a(I31
I32
tp1323
a(I32
I13
tp1324
a(I32
I14
tp1325
a(I32
I15
tp1326
a(I32
I16
tp1327
a(I32
I33
tp1328
a(I32
I34
tp1329
a(I32
I49
tp1330
a(I32
I50
tp1331
a(I32
I51
tp1332
a(I32
I52
tp1333
a(I32
I54
tp1334
a(I32
I2
tp1335
a(I32
I3
tp1336
a(I32
I8
tp1337
a(I32
I53
tp1338
a(I32
I35
tp1339
a(I32
I17
tp1340
a(I32
I18
tp1341
a(I32
I19
tp1342
a(I32
I20
tp1343
a(I32
I21
tp1344
a(I32
I22
tp1345
a(I32
I23
tp1346
a(I32
I24
tp1347
a(I32
I25
tp1348
a(I32
I26
tp1349
a(I32
I27
tp1350
a(I32
I28
tp1351
a(I32
I29
tp1352
a(I32
I30
tp1353
a(I32
I31
tp1354
aI01
(d(dp1355
S'name'
p1356
(lp1357
S'1'
aS'4'
aS'19'
p1358
aS'20'
p1359
aS'21'
p1360
aS'22'
p1361
aS'24'
p1362
aS'25'
p1363
aS'26'
p1364
aS'30'
p1365
aS'31'
p1366
aS'32'
p1367
aS'33'
p1368
aS'2'
aS'3'
aS'5'
aS'7'
aS'40'
p1369
aS'41'
p1370
aS'42'
p1371
aS'43'
p1372
aS'44'
p1373
aS'45'
p1374
aS'46'
p1375
aS'47'
p1376
aS'48'
p1377
aS'49'
p1378
aS'50'
p1379
aS'51'
p1380
aS'52'
p1381
aS'53'
p1382
aS'54'
p1383
aS'55'
p1384
aS'12'
p1385
aS'13'
p1386
aS'39'
p1387
aS'8'
aS'9'
aS'10'
p1388
aS'11'
p1389
aS'27'
p1390
aS'29'
p1391
aS'34'
p1392
aS'35'
p1393
aS'36'
p1394
aS'6'
aS'23'
p1395
aS'37'
p1396
aS'38'
p1397
aS'14'
p1398
aS'15'
p1399
aS'16'
p1400
aS'17'
p1401
aS'28'
p1402
aS'18'
p1403
asS'id'
p1404
(lp1405
S'n0'
p1406
aS'n1'
p1407
aS'n2'
p1408
aS'n3'
p1409
aS'n4'
p1410
aS'n5'
p1411
aS'n6'
p1412
aS'n7'
p1413
aS'n8'
p1414
aS'n9'
p1415
aS'n10'
p1416
aS'n11'
p1417
aS'n12'
p1418
aS'n13'
p1419
aS'n14'
p1420
aS'n15'
p1421
aS'n16'
p1422
aS'n17'
p1423
aS'n18'
p1424
aS'n19'
p1425
aS'n20'
p1426
aS'n21'
p1427
aS'n22'
p1428
aS'n23'
p1429
aS'n24'
p1430
aS'n25'
p1431
aS'n26'
p1432
aS'n27'
p1433
aS'n28'
p1434
aS'n29'
p1435
aS'n30'
p1436
aS'n31'
p1437
aS'n32'
p1438
aS'n33'
p1439
aS'n34'
p1440
aS'n35'
p1441
aS'n36'
p1442
aS'n37'
p1443
aS'n38'
p1444
aS'n39'
p1445
aS'n40'
p1446
aS'n41'
p1447
aS'n42'
p1448
aS'n43'
p1449
aS'n44'
p1450
aS'n45'
p1451
aS'n46'
p1452
aS'n47'
p1453
aS'n48'
p1454
aS'n49'
p1455
aS'n50'
p1456
aS'n51'
p1457
aS'n52'
p1458
aS'n53'
p1459
aS'n54'
p1460
as(dp1461
S'weight'
p1462
(lp1463
F1
aF1
aF1
aF1
aF1
aF1
aF1
aF1
aF1
aF1
aF1
aF1
aF3
aF2
aF6
aF1
aF8
aF1
aF9
aF7
aF8
aF9
aF9
aF9
aF9
aF7
aF7
aF9
aF9
aF8
aF9
aF3
aF1
aF10
aF5
aF3
aF3
aF6
aF2
aF7
aF12
aF10
aF7
aF15
aF7
aF3
aF7
aF2
aF2
aF2
aF3
aF9
aF8
aF1
aF1
aF8
aF3
aF2
aF1
aF6
aF15
aF16
aF12
aF10
aF6
aF10
aF3
aF6
aF6
aF7
aF8
aF11
aF13
aF7
aF7
aF10
aF2
aF2
aF1
aF2
aF2
aF1
aF1
aF2
aF2
aF2
aF2
aF2
aF2
aF2
aF2
aF2
aF2
aF2
aF1
aF1
aF1
aF1
aF1
aF2
aF1
aF1
aF1
aF2
aF6
aF10
aF1
aF1
aF5
aF5
aF1
aF1
aF1
aF1
aF1
aF1
aF1
aF1
aF1
aF1
aF1
aF1
aF1
aF1
aF1
aF5
aF9
aF5
aF4
aF11
aF12
aF7
aF13
aF3
aF5
aF3
aF5
aF5
aF6
aF10
aF4
aF8
aF1
aF3
aF5
aF8
aF8
aF8
aF6
aF7
aF9
aF9
aF5
aF9
aF8
aF9
aF7
aF9
aF7
aF9
aF9
aF4
aF6
aF8
aF3
aF3
aF1
aF2
aF3
aF2
aF2
aF1
aF2
aF1
aF1
aF1
aF1
aF1
aF1
aF1
aF2
aF2
aF1
aF3
aF5
aF2
aF2
aF3
aF4
aF1
aF2
aF2
aF2
aF2
aF2
aF2
aF2
aF3
aF3
aF2
aF2
aF5
aF3
aF1
aF1
aF1
aF3
aF7
aF1
aF1
aF1
aF2
aF6
aF7
aF4
aF5
aF5
aF3
aF1
aF5
aF3
aF5
aF5
aF5
aF3
aF4
aF5
aF3
aF3
aF3
aF3
aF4
aF1
aF3
aF5
aF3
aF2
aF3
aF3
aF5
aF4
aF3
aF3
aF3
aF1
aF1
aF1
aF3
aF2
aF10
aF22
aF13
aF11
aF9
aF21
aF6
aF23
aF23
aF22
aF9
aF9
aF3
aF12
aF6
aF6
aF6
aF6
aF7
aF23
aF15
aF10
aF2
aF1
aF2
aF3
aF20
aF9
aF13
aF16
aF16
aF12
aF7
aF3
aF18
aF22
aF10
aF11
aF11
aF21
aF21
aF24
aF22
aF2
aF13
aF9
aF9
aF7
aF29
aF34
aF30
aF23
aF7
aF5
aF1
aF11
aF3
aF3
aF31
aF19
aF13
aF1
aF13
aF2
aF3
aF10
aF2
aF11
aF8
aF10
aF3
aF5
aF2
aF2
aF2
aF1
aF9
aF8
aF9
aF9
aF9
aF6
aF5
aF2
aF4
aF3
aF3
aF9
aF7
aF1
aF6
aF2
aF5
aF2
aF5
aF7
aF20
aF15
aF12
aF3
aF20
aF11
aF20
aF8
aF22
aF19
aF14
aF9
aF20
aF21
aF40
aF16
aF17
aF1
aF13
aF11
aF1
aF3
aF1
aF4
aF1
aF1
aF15
aF1
aF8
aF3
aF2
aF1
aF20
aF42
aF17
aF43
aF15
aF47
aF24
aF29
aF27
aF26
aF20
aF46
aF50
aF50
aF30
aF30
aF28
aF1
aF3
aF3
aF3
aF1
aF1
aF16
aF1
aF8
aF2
aF2
aF1
aF15
aF42
aF16
aF35
aF13
aF40
aF23
aF17
aF10
aF27
aF21
aF38
aF39
aF40
aF26
aF21
aF28
aF1
aF2
aF1
aF2
aF1
aF12
aF1
aF1
aF8
aF2
aF3
aF1
aF12
aF17
aF16
aF8
aF16
aF13
aF16
aF9
aF13
aF15
aF15
aF16
aF16
aF16
aF15
aF13
aF5
aF9
aF12
aF2
aF1
aF6
aF1
aF4
aF2
aF3
aF8
aF6
aF7
aF12
aF3
aF1
aF1
aF10
aF1
aF7
aF1
aF20
aF43
aF35
aF16
aF28
aF47
aF22
aF22
aF43
aF33
aF24
aF46
aF49
aF44
aF41
aF42
aF20
aF1
aF2
aF1
aF6
aF1
aF9
aF2
aF11
aF15
aF13
aF13
aF28
aF30
aF13
aF6
aF12
aF20
aF23
aF29
aF29
aF25
aF24
aF26
aF17
aF2
aF1
aF1
aF10
aF1
aF1
aF9
aF2
aF2
aF20
aF47
aF40
aF16
aF47
aF30
aF24
aF22
aF46
aF36
aF25
aF47
aF50
aF44
aF43
aF44
aF21
aF1
aF2
aF3
aF1
aF1
aF3
aF1
aF5
aF1
aF2
aF8
aF24
aF23
aF9
aF22
aF13
aF24
aF6
aF12
aF17
aF22
aF23
aF23
aF19
aF20
aF20
aF10
aF2
aF1
aF11
aF2
aF9
aF2
aF22
aF29
aF17
aF22
aF6
aF22
aF6
aF20
aF11
aF5
aF23
aF27
aF28
aF17
aF17
aF6
aF6
aF5
aF4
aF12
aF5
aF3
aF3
aF6
aF6
aF5
aF6
aF1
aF9
aF2
aF19
aF27
aF10
aF13
aF43
aF12
aF46
aF12
aF20
aF23
aF23
aF43
aF44
aF39
aF29
aF34
aF17
aF1
aF2
aF1
aF6
aF1
aF8
aF2
aF14
aF26
aF27
aF15
aF33
aF20
aF36
aF17
aF11
aF23
aF22
aF34
aF34
aF34
aF30
aF32
aF18
aF2
aF2
aF1
aF1
aF7
aF1
aF1
aF9
aF1
aF2
aF9
aF20
aF21
aF15
aF24
aF23
aF25
aF22
aF5
aF23
aF22
aF24
aF25
aF24
aF23
aF24
aF15
aF2
aF1
aF1
aF8
aF1
aF7
aF1
aF2
aF20
aF46
aF38
aF16
aF46
aF29
aF47
aF23
aF23
aF43
aF34
aF24
aF50
aF45
aF41
aF41
aF20
aF2
aF3
aF1
aF2
aF1
aF11
aF1
aF1
aF9
aF1
aF3
aF21
aF50
aF39
aF16
aF49
aF29
aF50
aF23
aF27
aF44
aF34
aF25
aF50
aF48
aF41
aF42
aF21
aF3
aF3
aF1
aF2
aF13
aF2
aF1
aF7
aF1
aF3
aF6
aF40
aF50
aF40
aF16
aF6
aF44
aF25
aF44
aF19
aF28
aF39
aF34
aF24
aF45
aF48
aF37
aF38
aF4
aF17
aF25
aF4
aF3
aF1
aF2
aF7
aF1
aF9
aF2
aF16
aF30
aF26
aF15
aF41
aF24
aF43
aF20
aF17
aF29
aF30
aF23
aF41
aF41
aF37
aF37
aF18
aF2
aF1
aF7
aF1
aF9
aF1
aF2
aF17
aF30
aF21
aF13
aF42
aF26
aF44
aF20
aF17
aF34
aF32
aF24
aF41
aF42
aF38
aF37
aF19
aF1
aF2
aF1
aF4
aF1
aF5
aF7
aF4
aF7
aF1
aF1
aF1
aF6
aF1
aF5
aF7
aF13
aF9
aF12
aF6
aF17
aF7
aF9
aF1
aF3
aF10
aF1
aF5
aF8
aF2
aF3
aF4
aF1
aF2
aF9
aF3
aF7
aF3
aF11
aF28
aF28
aF12
aF3
aF20
aF17
aF21
aF10
aF6
aF17
aF18
aF15
aF20
aF21
aF25
aF18
aF19
aF1
aF9
aF9
aF8
aF11
aF12
aF12
aF10
aF5
aF5
aF8
aF5
aF8
aF8
aF8
aF5
aF10
aF5
aF1
aF6
aF9
aF5
aF3
aF21
aF20
aF29
aF10
aF9
aF1
aF1
aF1
aF5
aF9
aF30
aF37
aF39
aF39
aF37
aF16
aF7
aF40
aF34
aF30
aF33
aF29
aF33
aF40
aF36
aF8
aF2
aF2
aF5
aF3
aF6
aF9
aF2
aF8
aF30
aF20
aF34
aF33
aF45
aF19
aF6
aF46
aF5
aF42
aF45
aF41
aF4
aF36
aF20
aF1
aF7
aF4
aF5
aF3
aF23
aF13
aF34
aF11
aF9
aF4
aF11
aF37
aF20
aF37
aF36
aF26
aF13
aF8
aF32
aF19
aF20
aF20
aF18
aF19
aF35
aF29
aF9
aF12
aF2
aF11
aF5
aF5
aF23
aF16
aF30
aF8
aF6
aF1
aF3
aF1
aF2
aF12
aF1
aF2
aF2
aF3
aF4
aF2
aF1
aF12
aF39
aF34
aF37
aF43
aF38
aF21
aF13
aF41
aF33
aF31
aF34
aF30
aF30
aF43
aF42
aF7
aF10
aF2
aF1
aF2
aF12
aF5
aF4
aF22
aF16
aF23
aF10
aF5
aF3
aF3
aF2
aF2
aF1
aF2
aF2
aF3
aF2
aF5
aF2
aF2
aF2
aF3
aF3
aF3
aF1
aF2
aF1
aF1
aF12
aF39
aF33
aF36
aF43
aF42
aF24
aF15
aF47
aF32
aF32
aF34
aF31
aF31
aF44
aF40
aF8
aF7
aF1
aF7
aF3
aF3
aF9
aF12
aF7
aF3
aF2
aF1
aF1
aF1
aF1
aF3
aF1
aF1
aF1
aF1
aF1
aF10
aF37
aF45
aF26
aF38
aF42
aF22
aF11
aF52
aF17
aF45
aF44
aF41
aF21
aF44
aF29
aF9
aF15
aF2
aF13
aF4
aF3
aF9
aF7
aF5
aF3
aF5
aF16
aF19
aF13
aF21
aF24
aF22
aF13
aF19
aF26
aF19
aF19
aF19
aF26
aF24
aF26
aF9
aF7
aF2
aF3
aF1
aF5
aF3
aF3
aF3
aF1
aF5
aF7
aF6
aF8
aF13
aF15
aF11
aF13
aF14
aF8
aF6
aF6
aF7
aF6
aF14
aF9
aF9
aF3
aF2
aF5
aF1
aF3
aF1
aF12
aF18
aF11
aF5
aF4
aF4
aF3
aF2
aF1
aF6
aF2
aF2
aF2
aF8
aF40
aF46
aF32
aF41
aF47
aF52
aF19
aF14
aF15
aF46
aF46
aF42
aF17
aF48
aF29
aF9
aF7
aF2
aF3
aF1
aF6
aF22
aF3
aF3
aF5
aF34
aF5
aF19
aF33
aF32
aF17
aF26
aF8
aF15
aF5
aF5
aF5
aF55
aF34
aF53
aF7
aF2
aF2
aF5
aF3
aF6
aF10
aF2
aF8
aF30
aF42
aF20
aF31
aF32
aF45
aF19
aF6
aF46
aF5
aF46
aF42
aF4
aF36
aF20
aF7
aF2
aF2
aF5
aF3
aF6
aF11
aF2
aF8
aF33
aF45
aF20
aF34
aF34
aF44
aF19
aF6
aF46
aF5
aF46
aF42
aF4
aF39
aF20
aF9
aF2
aF2
aF6
aF3
aF6
aF11
aF2
aF8
aF29
aF41
aF18
aF30
aF31
aF41
aF19
aF7
aF42
aF5
aF42
aF42
aF1
aF37
aF16
aF9
aF3
aF2
aF1
aF7
aF21
aF3
aF1
aF3
aF5
aF33
aF4
aF19
aF30
aF31
aF21
aF26
aF6
aF17
aF55
aF4
aF4
aF1
aF34
aF52
aF8
aF9
aF2
aF10
aF4
aF3
aF23
aF21
aF31
aF9
aF9
aF6
aF10
aF40
aF36
aF35
aF43
aF44
aF44
aF24
aF14
aF48
aF34
aF36
aF39
aF37
aF34
aF41
aF9
aF8
aF2
aF4
aF1
aF2
aF15
aF24
aF19
aF8
aF7
aF1
aF1
aF1
aF5
aF5
aF36
aF20
aF29
aF42
aF40
aF29
aF26
aF9
aF29
aF53
aF20
aF20
aF16
aF52
aF41
asS'normalized inweight'
p1464
(lp1465
F0.0058479532163742687
aF0.0028571428571428571
aF0.0017064846416382253
aF0.0020491803278688526
aF0.0035335689045936395
aF0.0016722408026755853
aF0.0028089887640449437
aF0.0015723270440251573
aF0.0022271714922048997
aF0.0027100271002710027
aF0.0016286644951140066
aF0.0015503875968992248
aF0.023622047244094488
aF0.068965517241379309
aF0.040000000000000001
aF0.001639344262295082
aF0.016985138004246284
aF0.0020242914979757085
aF0.013196480938416423
aF0.010014306151645207
aF0.013377926421404682
aF0.023622047244094488
aF0.048648648648648651
aF0.014106583072100314
aF0.022113022113022112
aF0.014925373134328358
aF0.014492753623188406
aF0.02
aF0.022959183673469389
aF0.011527377521613832
aF0.015679442508710801
aF0.023076923076923078
aF0.034482758620689655
aF0.066666666666666666
aF0.07575757575757576
aF0.066666666666666666
aF0.005893909626719057
aF0.0098360655737704927
aF0.004246284501061571
aF0.01417004048582996
aF0.017595307917888565
aF0.014306151645207439
aF0.011705685618729096
aF0.03937007874015748
aF0.03783783783783784
aF0.0047021943573667714
aF0.017199017199017199
aF0.0042643923240938165
aF0.004140786749482402
aF0.0044444444444444444
aF0.0076530612244897957
aF0.012968299711815562
aF0.013937282229965157
aF0.083333333333333329
aF0.0066666666666666671
aF0.049382716049382713
aF0.10714285714285714
aF0.035087719298245612
aF0.030303030303030304
aF0.017142857142857144
aF0.025597269624573378
aF0.032786885245901641
aF0.042402826855123678
aF0.016722408026755852
aF0.016853932584269662
aF0.015723270440251572
aF0.0096774193548387101
aF0.012631578947368421
aF0.013363028953229399
aF0.018970189701897018
aF0.013029315960912053
aF0.017054263565891473
aF0.01951951951951952
aF0.013725490196078431
aF0.013461538461538462
aF0.019646365422396856
aF0.0028612303290414878
aF0.015384615384615385
aF0.007874015748031496
aF0.004246284501061571
aF0.0029325513196480938
aF0.0014306151645207439
aF0.0016722408026755853
aF0.0052493438320209973
aF0.010810810810810811
aF0.003134796238244514
aF0.0049140049140049139
aF0.0042643923240938165
aF0.004140786749482402
aF0.0044444444444444444
aF0.0051020408163265302
aF0.002881844380403458
aF0.0034843205574912892
aF0.0057142857142857143
aF0.0035335689045936395
aF0.018518518518518517
aF0.0015723270440251573
aF0.0027100271002710027
aF0.0015503875968992248
aF0.003003003003003003
aF0.032258064516129031
aF0.010638297872340425
aF0.0019646365422396855
aF0.0028612303290414878
aF0.046153846153846156
aF0.07874015748031496
aF0.0058479532163742687
aF0.0061728395061728392
aF0.07575757575757576
aF0.1111111111111111
aF0.0017064846416382253
aF0.0020491803278688526
aF0.0035335689045936395
aF0.0016722408026755853
aF0.0028089887640449437
aF0.0015723270440251573
aF0.0032258064516129032
aF0.0021052631578947368
aF0.0022271714922048997
aF0.0027100271002710027
aF0.0016286644951140066
aF0.0015503875968992248
aF0.0015015015015015015
aF0.0019607843137254902
aF0.0019230769230769232
aF0.009823182711198428
aF0.014754098360655738
aF0.010615711252653927
aF0.0080971659919028341
aF0.016129032258064516
aF0.017167381974248927
aF0.011705685618729096
aF0.034120734908136482
aF0.016216216216216217
aF0.0078369905956112845
aF0.0073710073710073713
aF0.010660980810234541
aF0.010351966873706004
aF0.013333333333333334
aF0.014409221902017291
aF0.0069686411149825784
aF0.046783625730994149
aF0.0066666666666666671
aF0.10714285714285714
aF0.014285714285714285
aF0.013651877133105802
aF0.016393442622950821
aF0.028268551236749116
aF0.1111111111111111
aF0.011705685618729096
aF0.025280898876404494
aF0.014150943396226415
aF0.016129032258064516
aF0.018947368421052633
aF0.017817371937639197
aF0.024390243902439025
aF0.011400651465798045
aF0.013953488372093023
aF0.010510510510510511
aF0.017647058823529412
aF0.017307692307692309
aF0.12903225806451613
aF0.063829787234042548
aF0.015717092337917484
aF0.017543859649122806
aF0.018518518518518517
aF0.017543859649122806
aF0.0057142857142857143
aF0.0051194539249146756
aF0.0040983606557377051
aF0.0070671378091872791
aF0.018518518518518517
aF0.0031446540880503146
aF0.0032258064516129032
aF0.0027100271002710027
aF0.0016286644951140066
aF0.0015503875968992248
aF0.0015015015015015015
aF0.0019230769230769232
aF0.010638297872340425
aF0.003929273084479371
aF0.011695906432748537
aF0.035714285714285712
aF0.090909090909090912
aF0.014285714285714285
aF0.0034129692832764505
aF0.0040983606557377051
aF0.010600706713780919
aF0.07407407407407407
aF0.0016722408026755853
aF0.0056179775280898875
aF0.0031446540880503146
aF0.0064516129032258064
aF0.0042105263157894736
aF0.0044543429844097994
aF0.0054200542005420054
aF0.0032573289902280132
aF0.0046511627906976744
aF0.0045045045045045045
aF0.0039215686274509803
aF0.0038461538461538464
aF0.053191489361702128
aF0.005893909626719057
aF0.0054054054054054057
aF0.001567398119122257
aF0.0058479532163742687
aF0.052631578947368418
aF0.02
aF0.0017064846416382253
aF0.0020491803278688526
aF0.0035335689045936395
aF0.037037037037037035
aF0.0090090090090090089
aF0.074468085106382975
aF0.0078585461689587421
aF0.03937007874015748
aF0.033333333333333333
aF0.066666666666666666
aF0.0019646365422396855
aF0.0081967213114754103
aF0.006369426751592357
aF0.010121457489878543
aF0.007331378299120235
aF0.0071530758226037196
aF0.005016722408026756
aF0.010498687664041995
aF0.027027027027027029
aF0.0047021943573667714
aF0.0063965884861407248
aF0.0062111801242236021
aF0.0066666666666666671
aF0.005763688760806916
aF0.0017421602787456446
aF0.023622047244094488
aF0.033333333333333333
aF0.045454545454545456
aF0.003929273084479371
aF0.0049180327868852463
aF0.0060728744939271256
aF0.007331378299120235
aF0.0057224606580829757
aF0.005016722408026756
aF0.007874015748031496
aF0.016216216216216217
aF0.001567398119122257
aF0.0024570024570024569
aF0.0025510204081632651
aF0.0043227665706051877
aF0.0034843205574912892
aF0.03968253968253968
aF0.085271317829457363
aF0.12380952380952381
aF0.03081232492997199
aF0.01768172888015717
aF0.034426229508196723
aF0.012738853503184714
aF0.046558704453441298
aF0.033724340175953077
aF0.031473533619456366
aF0.015050167224080268
aF0.023622047244094488
aF0.016216216216216217
aF0.018808777429467086
aF0.014742014742014743
aF0.01279317697228145
aF0.012422360248447204
aF0.013333333333333334
aF0.017857142857142856
aF0.033141210374639768
aF0.026132404181184669
aF0.038167938931297711
aF0.0077519379844961239
aF0.0095238095238095247
aF0.0056022408963585435
aF0.005893909626719057
aF0.032786885245901641
aF0.019108280254777069
aF0.026315789473684209
aF0.023460410557184751
aF0.022889842632331903
aF0.020066889632107024
aF0.018372703412073491
aF0.016216216216216217
aF0.028213166144200628
aF0.054054054054054057
aF0.021321961620469083
aF0.022774327122153208
aF0.024444444444444446
aF0.053571428571428568
aF0.030259365994236311
aF0.041811846689895474
aF0.083969465648854963
aF0.0079365079365079361
aF0.12380952380952381
aF0.13636363636363635
aF0.025210084033613446
aF0.0137524557956778
aF0.047540983606557376
aF0.068825910931174086
aF0.04398826979472141
aF0.032904148783977114
aF0.011705685618729096
aF0.013123359580052493
aF0.0054054054054054057
aF0.017241379310344827
aF0.0073710073710073713
aF0.0076530612244897957
aF0.044668587896253602
aF0.033101045296167246
aF0.049618320610687022
aF0.003968253968253968
aF0.050387596899224806
aF0.0056022408963585435
aF0.005893909626719057
aF0.016393442622950821
aF0.004246284501061571
aF0.022267206477732792
aF0.011730205278592375
aF0.014306151645207439
aF0.005016722408026756
aF0.0078369905956112845
aF0.0042643923240938165
aF0.004140786749482402
aF0.0044444444444444444
aF0.0025510204081632651
aF0.012968299711815562
aF0.013937282229965157
aF0.034883720930232558
aF0.014754098360655738
aF0.018218623481781375
aF0.0087976539589442824
aF0.0071530758226037196
aF0.0033444816053511705
aF0.006269592476489028
aF0.0073710073710073713
aF0.0076530612244897957
aF0.012968299711815562
aF0.012195121951219513
aF0.083333333333333329
aF0.035087719298245612
aF0.14285714285714285
aF0.030864197530864196
aF0.071428571428571425
aF0.08771929824561403
aF0.21212121212121213
aF0.034129692832764506
aF0.030737704918032786
aF0.042402826855123678
aF0.055555555555555552
aF0.033444816053511704
aF0.030898876404494381
aF0.031446540880503145
aF0.025806451612903226
aF0.061624649859943981
aF0.040000000000000001
aF0.031180400890868598
aF0.024390243902439025
aF0.032573289902280131
aF0.03255813953488372
aF0.06006006006006006
aF0.031372549019607843
aF0.032692307692307694
aF0.032258064516129031
aF0.13829787234042554
aF0.021611001964636542
aF0.0014662756598240469
aF0.0042918454935622317
aF0.0016722408026755853
aF0.006269592476489028
aF0.0017421602787456446
aF0.083333333333333329
aF0.08771929824561403
aF0.0066666666666666671
aF0.049382716049382713
aF0.10714285714285714
aF0.035087719298245612
aF0.030303030303030304
aF0.057142857142857141
aF0.086065573770491802
aF0.060070671378091869
aF0.071906354515050161
aF0.042134831460674156
aF0.073899371069182387
aF0.077419354838709681
aF0.081232492997198882
aF0.056842105263157895
aF0.057906458797327393
aF0.054200542005420058
aF0.074918566775244305
aF0.077519379844961239
aF0.075075075075075076
aF0.058823529411764705
aF0.057692307692307696
aF0.0550098231827112
aF0.001639344262295082
aF0.0043988269794721412
aF0.0042918454935622317
aF0.0047021943573667714
aF0.0017421602787456446
aF0.083333333333333329
aF0.093567251461988299
aF0.0066666666666666671
aF0.049382716049382713
aF0.071428571428571425
aF0.035087719298245612
aF0.030303030303030304
aF0.042857142857142858
aF0.071672354948805458
aF0.056537102473498232
aF0.058528428093645488
aF0.036516853932584269
aF0.062893081761006289
aF0.074193548387096769
aF0.047619047619047616
aF0.021052631578947368
aF0.060133630289532294
aF0.056910569105691054
aF0.061889250814332247
aF0.060465116279069767
aF0.06006006006006006
aF0.050980392156862744
aF0.040384615384615387
aF0.0550098231827112
aF0.001639344262295082
aF0.0028612303290414878
aF0.0016722408026755853
aF0.003134796238244514
aF0.083333333333333329
aF0.070175438596491224
aF0.071428571428571425
aF0.0066666666666666671
aF0.049382716049382713
aF0.071428571428571425
aF0.052631578947368418
aF0.030303030303030304
aF0.034285714285714287
aF0.029010238907849831
aF0.032786885245901641
aF0.14814814814814814
aF0.026755852842809364
aF0.036516853932584269
aF0.025157232704402517
aF0.02903225806451613
aF0.02736842105263158
aF0.0334075723830735
aF0.04065040650406504
aF0.026058631921824105
aF0.024806201550387597
aF0.024024024024024024
aF0.029411764705882353
aF0.025000000000000001
aF0.16129032258064516
aF0.095744680851063829
aF0.023575638506876228
aF0.0028612303290414878
aF0.071428571428571425
aF0.037037037037037035
aF0.035714285714285712
aF0.070175438596491224
aF0.060606060606060608
aF0.0085714285714285719
aF0.028268551236749116
aF0.0090090090090090089
aF0.22580645161290322
aF0.1276595744680851
aF0.005893909626719057
aF0.0014306151645207439
aF0.083333333333333329
aF0.058479532163742687
aF0.0066666666666666671
aF0.043209876543209874
aF0.017543859649122806
aF0.057142857142857141
aF0.073378839590443681
aF0.071721311475409832
aF0.056537102473498232
aF0.078651685393258425
aF0.073899371069182387
aF0.070967741935483872
aF0.061624649859943981
aF0.090526315789473691
aF0.073496659242761692
aF0.065040650406504072
aF0.074918566775244305
aF0.075968992248062014
aF0.066066066066066062
aF0.080392156862745104
aF0.080769230769230774
aF0.039292730844793712
aF0.0014662756598240469
aF0.0028612303290414878
aF0.083333333333333329
aF0.035087719298245612
aF0.0066666666666666671
aF0.055555555555555552
aF0.035087719298245612
aF0.031428571428571431
aF0.025597269624573378
aF0.02663934426229508
aF0.045936395759717315
aF0.046822742474916385
aF0.04716981132075472
aF0.041935483870967745
aF0.01680672268907563
aF0.025263157894736842
aF0.044543429844097995
aF0.062330623306233061
aF0.047231270358306189
aF0.044961240310077519
aF0.037537537537537538
aF0.047058823529411764
aF0.050000000000000003
aF0.033398821218074658
aF0.0028612303290414878
aF0.0016722408026755853
aF0.083333333333333329
aF0.058479532163742687
aF0.071428571428571425
aF0.0066666666666666671
aF0.055555555555555552
aF0.071428571428571425
aF0.035087719298245612
aF0.057142857142857141
aF0.080204778156996587
aF0.081967213114754092
aF0.056537102473498232
aF0.078595317725752512
aF0.084269662921348312
aF0.077419354838709681
aF0.061624649859943981
aF0.096842105263157896
aF0.080178173719376397
aF0.067750677506775062
aF0.076547231270358312
aF0.077519379844961239
aF0.066066066066066062
aF0.084313725490196084
aF0.08461538461538462
aF0.041257367387033402
aF0.001639344262295082
aF0.0029325513196480938
aF0.0042918454935622317
aF0.001567398119122257
aF0.0017421602787456446
aF0.017543859649122806
aF0.0066666666666666671
aF0.030864197530864196
aF0.035714285714285712
aF0.035087719298245612
aF0.022857142857142857
aF0.040955631399317405
aF0.047131147540983603
aF0.031802120141342753
aF0.03678929765886288
aF0.036516853932584269
aF0.037735849056603772
aF0.01680672268907563
aF0.025263157894736842
aF0.037861915367483297
aF0.059620596205962058
aF0.037459283387622153
aF0.03565891472868217
aF0.028528528528528527
aF0.039215686274509803
aF0.038461538461538464
aF0.019646365422396856
aF0.0028612303290414878
aF0.0016722408026755853
aF0.041984732824427481
aF0.0079365079365079361
aF0.034883720930232558
aF0.019047619047619049
aF0.062857142857142861
aF0.049488054607508533
aF0.034836065573770489
aF0.03678929765886288
aF0.016853932584269662
aF0.034591194968553458
aF0.01935483870967742
aF0.042105263157894736
aF0.024498886414253896
aF0.013550135501355014
aF0.037459283387622153
aF0.041860465116279069
aF0.042042042042042045
aF0.033333333333333333
aF0.032692307692307694
aF0.063829787234042548
aF0.011787819253438114
aF0.0081967213114754103
aF0.0080971659919028341
aF0.017595307917888565
aF0.0071530758226037196
aF0.005016722408026756
aF0.007874015748031496
aF0.0094043887147335428
aF0.0086455331412103754
aF0.0087108013937282226
aF0.035087719298245612
aF0.0066666666666666671
aF0.055555555555555552
aF0.035087719298245612
aF0.054285714285714284
aF0.04607508532423208
aF0.020491803278688523
aF0.045936395759717315
aF0.071906354515050161
aF0.033707865168539325
aF0.072327044025157231
aF0.03870967741935484
aF0.056022408963585436
aF0.051224944320712694
aF0.062330623306233061
aF0.070032573289902283
aF0.068217054263565891
aF0.058558558558558557
aF0.056862745098039215
aF0.065384615384615388
aF0.033398821218074658
aF0.0014662756598240469
aF0.0028612303290414878
aF0.083333333333333329
aF0.035087719298245612
aF0.0066666666666666671
aF0.049382716049382713
aF0.035087719298245612
aF0.040000000000000001
aF0.044368600682593858
aF0.055327868852459015
aF0.053003533568904596
aF0.055183946488294312
aF0.056179775280898875
aF0.056603773584905662
aF0.054838709677419356
aF0.03081232492997199
aF0.048421052631578948
aF0.059620596205962058
aF0.055374592833876218
aF0.052713178294573643
aF0.051051051051051052
aF0.058823529411764705
aF0.061538461538461542
aF0.03536345776031434
aF0.0029325513196480938
aF0.0028612303290414878
aF0.0016722408026755853
aF0.083333333333333329
aF0.040935672514619881
aF0.071428571428571425
aF0.0066666666666666671
aF0.055555555555555552
aF0.035714285714285712
aF0.035087719298245612
aF0.025714285714285714
aF0.034129692832764506
aF0.043032786885245901
aF0.053003533568904596
aF0.040133779264214048
aF0.064606741573033713
aF0.039308176100628929
aF0.070967741935483872
aF0.014005602240896359
aF0.048421052631578948
aF0.048997772828507792
aF0.039087947882736153
aF0.03875968992248062
aF0.036036036036036036
aF0.045098039215686274
aF0.046153846153846156
aF0.029469548133595286
aF0.0028612303290414878
aF0.0016722408026755853
aF0.083333333333333329
aF0.046783625730994149
aF0.0066666666666666671
aF0.043209876543209874
aF0.035714285714285712
aF0.035087719298245612
aF0.057142857142857141
aF0.078498293515358364
aF0.077868852459016397
aF0.056537102473498232
aF0.076923076923076927
aF0.081460674157303375
aF0.073899371069182387
aF0.074193548387096769
aF0.064425770308123242
aF0.090526315789473691
aF0.075723830734966593
aF0.065040650406504072
aF0.077519379844961239
aF0.067567567567567571
aF0.080392156862745104
aF0.078846153846153844
aF0.039292730844793712
aF0.0029325513196480938
aF0.0042918454935622317
aF0.0016722408026755853
aF0.003134796238244514
aF0.083333333333333329
aF0.064327485380116955
aF0.071428571428571425
aF0.0066666666666666671
aF0.055555555555555552
aF0.035714285714285712
aF0.052631578947368418
aF0.059999999999999998
aF0.085324232081911269
aF0.079918032786885251
aF0.056537102473498232
aF0.08193979933110368
aF0.081460674157303375
aF0.078616352201257858
aF0.074193548387096769
aF0.075630252100840331
aF0.092631578947368426
aF0.075723830734966593
aF0.067750677506775062
aF0.08143322475570032
aF0.072072072072072071
aF0.080392156862745104
aF0.080769230769230774
aF0.041257367387033402
aF0.0043988269794721412
aF0.0042918454935622317
aF0.0016722408026755853
aF0.003134796238244514
aF0.076023391812865493
aF0.14285714285714285
aF0.0066666666666666671
aF0.043209876543209874
aF0.035714285714285712
aF0.052631578947368418
aF0.18181818181818182
aF0.11428571428571428
aF0.085324232081911269
aF0.081967213114754092
aF0.056537102473498232
aF0.1111111111111111
aF0.073578595317725759
aF0.0702247191011236
aF0.069182389937106917
aF0.061290322580645158
aF0.078431372549019607
aF0.082105263157894737
aF0.075723830734966593
aF0.065040650406504072
aF0.073289902280130298
aF0.07441860465116279
aF0.072549019607843143
aF0.073076923076923081
aF0.12903225806451613
aF0.18085106382978725
aF0.049115913555992138
aF0.0058651026392961877
aF0.0042918454935622317
aF0.0016722408026755853
aF0.003134796238244514
aF0.040935672514619881
aF0.0066666666666666671
aF0.055555555555555552
aF0.035087719298245612
aF0.045714285714285714
aF0.051194539249146756
aF0.053278688524590161
aF0.053003533568904596
aF0.068561872909698993
aF0.06741573033707865
aF0.06761006289308176
aF0.064516129032258063
aF0.047619047619047616
aF0.061052631578947365
aF0.066815144766147
aF0.062330623306233061
aF0.066775244299674269
aF0.063565891472868216
aF0.055555555555555552
aF0.071153846153846151
aF0.03536345776031434
aF0.0029325513196480938
aF0.0014306151645207439
aF0.040935672514619881
aF0.0066666666666666671
aF0.055555555555555552
aF0.035714285714285712
aF0.035087719298245612
aF0.048571428571428571
aF0.051194539249146756
aF0.043032786885245901
aF0.045936395759717315
aF0.070234113712374577
aF0.073033707865168537
aF0.069182389937106917
aF0.064516129032258063
aF0.047619047619047616
aF0.071578947368421048
aF0.07126948775055679
aF0.065040650406504072
aF0.066775244299674269
aF0.065116279069767441
aF0.057057057057057055
aF0.072549019607843143
aF0.03732809430255403
aF0.0014662756598240469
aF0.0028612303290414878
aF0.071428571428571425
aF0.024691358024691357
aF0.0028571428571428571
aF0.017667844522968199
aF0.12962962962962962
aF0.006006006006006006
aF0.074468085106382975
aF0.0019646365422396855
aF0.0014306151645207439
aF0.071428571428571425
aF0.037037037037037035
aF0.035714285714285712
aF0.08771929824561403
aF0.21212121212121213
aF0.037142857142857144
aF0.031802120141342753
aF0.22222222222222221
aF0.01680672268907563
aF0.025525525525525526
aF0.22580645161290322
aF0.01768172888015717
aF0.0014306151645207439
aF0.023622047244094488
aF0.058479532163742687
aF0.071428571428571425
aF0.033333333333333333
aF0.049382716049382713
aF0.071428571428571425
aF0.052631578947368418
aF0.12121212121212122
aF0.015151515151515152
aF0.044444444444444446
aF0.034351145038167941
aF0.011904761904761904
aF0.027131782945736434
aF0.028571428571428571
aF0.031428571428571431
aF0.04778156996587031
aF0.05737704918032787
aF0.042402826855123678
aF0.055555555555555552
aF0.033444816053511704
aF0.047752808988764044
aF0.033018867924528301
aF0.032258064516129031
aF0.01680672268907563
aF0.035789473684210524
aF0.040089086859688199
aF0.04065040650406504
aF0.032573289902280131
aF0.03255813953488372
aF0.037537537537537538
aF0.035294117647058823
aF0.03653846153846154
aF0.032258064516129031
aF0.095744680851063829
aF0.014754098360655738
aF0.016985138004246284
aF0.022267206477732792
aF0.017595307917888565
aF0.017167381974248927
aF0.016722408026755852
aF0.013123359580052493
aF0.027027027027027029
aF0.012539184952978056
aF0.012285012285012284
aF0.017057569296375266
aF0.016563146997929608
aF0.017777777777777778
aF0.012755102040816327
aF0.014409221902017291
aF0.0087108013937282226
aF0.0076923076923076927
aF0.047244094488188976
aF0.059999999999999998
aF0.07575757575757576
aF0.066666666666666666
aF0.080152671755725186
aF0.079365079365079361
aF0.1124031007751938
aF0.095238095238095233
aF0.13636363636363635
aF0.0017064846416382253
aF0.0020491803278688526
aF0.0015723270440251573
aF0.014005602240896359
aF0.01768172888015717
aF0.063694267515923567
aF0.074898785425101214
aF0.057184750733137828
aF0.055793991416309016
aF0.061872909698996656
aF0.041994750656167978
aF0.03783783783783784
aF0.062695924764890276
aF0.083538083538083535
aF0.063965884861407252
aF0.068322981366459631
aF0.064444444444444443
aF0.084183673469387751
aF0.057636887608069162
aF0.062717770034843204
aF0.061538461538461542
aF0.015748031496062992
aF0.068965517241379309
aF0.033333333333333333
aF0.045454545454545456
aF0.022900763358778626
aF0.035714285714285712
aF0.019047619047619049
aF0.015717092337917484
aF0.049180327868852458
aF0.04048582995951417
aF0.049853372434017593
aF0.047210300429184553
aF0.075250836120401343
aF0.049868766404199474
aF0.032432432432432434
aF0.072100313479623826
aF0.012285012285012284
aF0.089552238805970144
aF0.093167701863354033
aF0.091111111111111115
aF0.01020408163265306
aF0.051873198847262249
aF0.03484320557491289
aF0.0076923076923076927
aF0.055118110236220472
aF0.026666666666666668
aF0.07575757575757576
aF0.066666666666666666
aF0.087786259541984726
aF0.051587301587301584
aF0.13178294573643412
aF0.10476190476190476
aF0.13636363636363635
aF0.011204481792717087
aF0.021611001964636542
aF0.060655737704918035
aF0.042462845010615709
aF0.054252199413489736
aF0.051502145922746781
aF0.043478260869565216
aF0.034120734908136482
aF0.043243243243243246
aF0.050156739811912224
aF0.046683046683046681
aF0.042643923240938165
aF0.041407867494824016
aF0.040000000000000001
aF0.048469387755102039
aF0.050432276657060522
aF0.050522648083623695
aF0.069230769230769235
aF0.094488188976377951
aF0.068965517241379309
aF0.073333333333333334
aF0.07575757575757576
aF0.1111111111111111
aF0.087786259541984726
aF0.063492063492063489
aF0.11627906976744186
aF0.076190476190476197
aF0.090909090909090912
aF0.0028571428571428571
aF0.0051194539249146756
aF0.0016722408026755853
aF0.0031446540880503146
aF0.033613445378151259
aF0.0021052631578947368
aF0.0044543429844097994
aF0.0032573289902280132
aF0.0046511627906976744
aF0.006006006006006006
aF0.0039215686274509803
aF0.0019230769230769232
aF0.023575638506876228
aF0.063934426229508193
aF0.072186836518046707
aF0.074898785425101214
aF0.061516452074391992
aF0.06354515050167224
aF0.055118110236220472
aF0.070270270270270274
aF0.064263322884012541
aF0.081081081081081086
aF0.066098081023454158
aF0.070393374741200831
aF0.066666666666666666
aF0.076530612244897961
aF0.061959654178674349
aF0.073170731707317069
aF0.053846153846153849
aF0.07874015748031496
aF0.011695906432748537
aF0.034482758620689655
aF0.14285714285714285
aF0.080000000000000002
aF0.07575757575757576
aF0.088888888888888892
aF0.083969465648854963
aF0.063492063492063489
aF0.089147286821705432
aF0.095238095238095233
aF0.07575757575757576
aF0.0085714285714285719
aF0.0051194539249146756
aF0.0040983606557377051
aF0.0070671378091872791
aF0.018518518518518517
aF0.0033444816053511705
aF0.0056179775280898875
aF0.0047169811320754715
aF0.0064516129032258064
aF0.014005602240896359
aF0.0042105263157894736
aF0.0044543429844097994
aF0.0054200542005420054
aF0.0048859934853420191
aF0.0046511627906976744
aF0.0045045045045045045
aF0.0019607843137254902
aF0.0038461538461538464
aF0.032258064516129031
aF0.010638297872340425
aF0.023575638506876228
aF0.063934426229508193
aF0.070063694267515922
aF0.0728744939271255
aF0.063049853372434017
aF0.070234113712374577
aF0.062992125984251968
aF0.081081081081081086
aF0.073667711598746077
aF0.078624078624078622
aF0.068230277185501065
aF0.070393374741200831
aF0.068888888888888888
aF0.079081632653061229
aF0.063400576368876083
aF0.06968641114982578
aF0.061538461538461542
aF0.055118110236220472
aF0.034482758620689655
aF0.046666666666666669
aF0.045454545454545456
aF0.066666666666666666
aF0.034351145038167941
aF0.047619047619047616
aF0.027131782945736434
aF0.028571428571428571
aF0.030303030303030304
aF0.0028571428571428571
aF0.0020491803278688526
aF0.0028089887640449437
aF0.0032258064516129032
aF0.0084033613445378148
aF0.0022271714922048997
aF0.0027100271002710027
aF0.0016286644951140066
aF0.0015503875968992248
aF0.0015015015015015015
aF0.019646365422396856
aF0.060655737704918035
aF0.095541401273885357
aF0.052631578947368418
aF0.055718475073313782
aF0.060085836909871244
aF0.05774278215223097
aF0.059459459459459463
aF0.081504702194357362
aF0.041769041769041768
aF0.095948827292110878
aF0.091097308488612833
aF0.091111111111111115
aF0.053571428571428568
aF0.063400576368876083
aF0.050522648083623695
aF0.069230769230769235
aF0.11811023622047244
aF0.068965517241379309
aF0.08666666666666667
aF0.060606060606060608
aF0.066666666666666666
aF0.034351145038167941
aF0.027777777777777776
aF0.01937984496124031
aF0.0084033613445378148
aF0.009823182711198428
aF0.026229508196721311
aF0.040339702760084924
aF0.026315789473684209
aF0.030791788856304986
aF0.034334763948497854
aF0.03678929765886288
aF0.070270270270270274
aF0.029780564263322883
aF0.063882063882063883
aF0.040511727078891259
aF0.039337474120082816
aF0.042222222222222223
aF0.066326530612244902
aF0.034582132564841501
aF0.045296167247386762
aF0.069230769230769235
aF0.055118110236220472
aF0.068965517241379309
aF0.02
aF0.017543859649122806
aF0.07575757575757576
aF0.066666666666666666
aF0.011450381679389313
aF0.011904761904761904
aF0.003875968992248062
aF0.009823182711198428
aF0.011475409836065573
aF0.012738853503184714
aF0.016194331983805668
aF0.01906158357771261
aF0.021459227467811159
aF0.01839464882943144
aF0.034120734908136482
aF0.021943573667711599
aF0.019656019656019656
aF0.01279317697228145
aF0.012422360248447204
aF0.015555555555555555
aF0.015306122448979591
aF0.020172910662824207
aF0.015679442508710801
aF0.069230769230769235
aF0.023622047244094488
aF0.068965517241379309
aF0.033333333333333333
aF0.017543859649122806
aF0.045454545454545456
aF0.022222222222222223
aF0.045801526717557252
aF0.071428571428571425
aF0.042635658914728682
aF0.047619047619047616
aF0.060606060606060608
aF0.011428571428571429
aF0.0051194539249146756
aF0.0040983606557377051
aF0.0015723270440251573
aF0.01680672268907563
aF0.0032573289902280132
aF0.0031007751937984496
aF0.003003003003003003
aF0.015717092337917484
aF0.065573770491803282
aF0.097664543524416142
aF0.064777327935222673
aF0.060117302052785926
aF0.067238912732474967
aF0.086956521739130432
aF0.049868766404199474
aF0.07567567567567568
aF0.036855036855036855
aF0.098081023454157784
aF0.095238095238095233
aF0.093333333333333338
aF0.04336734693877551
aF0.069164265129683003
aF0.050522648083623695
aF0.069230769230769235
aF0.055118110236220472
aF0.068965517241379309
aF0.02
aF0.022222222222222223
aF0.022900763358778626
aF0.087301587301587297
aF0.011627906976744186
aF0.045454545454545456
aF0.009823182711198428
aF0.055737704918032788
aF0.010615711252653927
aF0.038461538461538464
aF0.048387096774193547
aF0.045779685264663805
aF0.028428093645484948
aF0.068241469816272965
aF0.043243243243243246
aF0.023510971786833857
aF0.010660980810234541
aF0.010351966873706004
aF0.011111111111111112
aF0.14030612244897958
aF0.048991354466858789
aF0.092334494773519168
aF0.053846153846153849
aF0.015748031496062992
aF0.068965517241379309
aF0.033333333333333333
aF0.045454545454545456
aF0.022900763358778626
aF0.03968253968253968
aF0.019047619047619049
aF0.015717092337917484
aF0.049180327868852458
aF0.089171974522292988
aF0.04048582995951417
aF0.045454545454545456
aF0.045779685264663805
aF0.075250836120401343
aF0.049868766404199474
aF0.032432432432432434
aF0.072100313479623826
aF0.012285012285012284
aF0.095238095238095233
aF0.093333333333333338
aF0.01020408163265306
aF0.051873198847262249
aF0.03484320557491289
aF0.053846153846153849
aF0.015748031496062992
aF0.068965517241379309
aF0.033333333333333333
aF0.045454545454545456
aF0.022900763358778626
aF0.043650793650793648
aF0.019047619047619049
aF0.015717092337917484
aF0.054098360655737705
aF0.095541401273885357
aF0.04048582995951417
aF0.049853372434017593
aF0.048640915593705293
aF0.073578595317725759
aF0.049868766404199474
aF0.032432432432432434
aF0.072100313479623826
aF0.012285012285012284
aF0.098081023454157784
aF0.093333333333333338
aF0.01020408163265306
aF0.056195965417867436
aF0.03484320557491289
aF0.069230769230769235
aF0.015748031496062992
aF0.068965517241379309
aF0.040000000000000001
aF0.045454545454545456
aF0.022900763358778626
aF0.043650793650793648
aF0.019047619047619049
aF0.015717092337917484
aF0.047540983606557376
aF0.087048832271762203
aF0.03643724696356275
aF0.04398826979472141
aF0.044349070100143065
aF0.068561872909698993
aF0.049868766404199474
aF0.03783783783783784
aF0.065830721003134793
aF0.012285012285012284
aF0.089552238805970144
aF0.086956521739130432
aF0.0025510204081632651
aF0.053314121037463975
aF0.027874564459930314
aF0.069230769230769235
aF0.023622047244094488
aF0.068965517241379309
aF0.022222222222222223
aF0.026717557251908396
aF0.083333333333333329
aF0.011627906976744186
aF0.0095238095238095247
aF0.045454545454545456
aF0.009823182711198428
aF0.054098360655737705
aF0.0084925690021231421
aF0.038461538461538464
aF0.04398826979472141
aF0.044349070100143065
aF0.035117056856187288
aF0.068241469816272965
aF0.032432432432432434
aF0.02664576802507837
aF0.13513513513513514
aF0.0085287846481876331
aF0.0082815734989648039
aF0.0022222222222222222
aF0.048991354466858789
aF0.090592334494773524
aF0.061538461538461542
aF0.070866141732283464
aF0.068965517241379309
aF0.066666666666666666
aF0.060606060606060608
aF0.066666666666666666
aF0.087786259541984726
aF0.083333333333333329
aF0.12015503875968993
aF0.085714285714285715
aF0.13636363636363635
aF0.01680672268907563
aF0.019646365422396856
aF0.065573770491803282
aF0.076433121019108277
aF0.0708502024291498
aF0.063049853372434017
aF0.062947067238912732
aF0.073578595317725759
aF0.062992125984251968
aF0.07567567567567568
aF0.075235109717868343
aF0.083538083538083535
aF0.076759061833688705
aF0.080745341614906832
aF0.082222222222222224
aF0.08673469387755102
aF0.071428571428571425
aF0.069230769230769235
aF0.062992125984251968
aF0.068965517241379309
aF0.026666666666666668
aF0.015151515151515152
aF0.044444444444444446
aF0.057251908396946563
aF0.095238095238095233
aF0.073643410852713184
aF0.076190476190476197
aF0.10606060606060606
aF0.0028571428571428571
aF0.0017064846416382253
aF0.0015723270440251573
aF0.014005602240896359
aF0.009823182711198428
aF0.059016393442622953
aF0.042462845010615709
aF0.058704453441295545
aF0.061583577712609971
aF0.057224606580829757
aF0.048494983277591976
aF0.068241469816272965
aF0.048648648648648651
aF0.045454545454545456
aF0.13022113022113022
aF0.042643923240938165
aF0.041407867494824016
aF0.035555555555555556
aF0.1326530612244898
aF0.059077809798270896
astRp1466
(dp1467
b.